
f411_test.elf:     file format elf32-littlearm

Sections:
Idx Name          Size      VMA       LMA       File off  Algn
  0 .isr_vector   00000198  08000000  08000000  00010000  2**0
                  CONTENTS, ALLOC, LOAD, READONLY, DATA
  1 .text         00002ee8  080001a0  080001a0  000101a0  2**4
                  CONTENTS, ALLOC, LOAD, READONLY, CODE
  2 .rodata       0000006c  08003088  08003088  00013088  2**0
                  CONTENTS, ALLOC, LOAD, READONLY, DATA
  3 .ARM.extab    00000000  080030f4  080030f4  0002005c  2**0
                  CONTENTS
  4 .ARM          00000008  080030f4  080030f4  000130f4  2**2
                  CONTENTS, ALLOC, LOAD, READONLY, DATA
  5 .preinit_array 00000000  080030fc  080030fc  0002005c  2**0
                  CONTENTS, ALLOC, LOAD, DATA
  6 .init_array   00000004  080030fc  080030fc  000130fc  2**2
                  CONTENTS, ALLOC, LOAD, DATA
  7 .fini_array   00000004  08003100  08003100  00013100  2**2
                  CONTENTS, ALLOC, LOAD, DATA
  8 .data         0000005c  20000000  08003104  00020000  2**2
                  CONTENTS, ALLOC, LOAD, DATA
  9 .bss          0000046c  2000005c  08003160  0002005c  2**2
                  ALLOC
 10 ._user_heap_stack 00000600  200004c8  08003160  000204c8  2**0
                  ALLOC
 11 .ARM.attributes 00000030  00000000  00000000  0002005c  2**0
                  CONTENTS, READONLY
 12 .comment      00000043  00000000  00000000  0002008c  2**0
                  CONTENTS, READONLY
 13 .debug_frame  00000690  00000000  00000000  000200d0  2**2
                  CONTENTS, READONLY, DEBUGGING, OCTETS

Disassembly of section .text:

080001a0 <__do_global_dtors_aux>:
 80001a0:	b510      	push	{r4, lr}
 80001a2:	4c05      	ldr	r4, [pc, #20]	; (80001b8 <__do_global_dtors_aux+0x18>)
 80001a4:	7823      	ldrb	r3, [r4, #0]
 80001a6:	b933      	cbnz	r3, 80001b6 <__do_global_dtors_aux+0x16>
 80001a8:	4b04      	ldr	r3, [pc, #16]	; (80001bc <__do_global_dtors_aux+0x1c>)
 80001aa:	b113      	cbz	r3, 80001b2 <__do_global_dtors_aux+0x12>
 80001ac:	4804      	ldr	r0, [pc, #16]	; (80001c0 <__do_global_dtors_aux+0x20>)
 80001ae:	f3af 8000 	nop.w
 80001b2:	2301      	movs	r3, #1
 80001b4:	7023      	strb	r3, [r4, #0]
 80001b6:	bd10      	pop	{r4, pc}
 80001b8:	2000005c 	.word	0x2000005c
 80001bc:	00000000 	.word	0x00000000
 80001c0:	08003070 	.word	0x08003070

080001c4 <frame_dummy>:
 80001c4:	b508      	push	{r3, lr}
 80001c6:	4b03      	ldr	r3, [pc, #12]	; (80001d4 <frame_dummy+0x10>)
 80001c8:	b11b      	cbz	r3, 80001d2 <frame_dummy+0xe>
 80001ca:	4903      	ldr	r1, [pc, #12]	; (80001d8 <frame_dummy+0x14>)
 80001cc:	4803      	ldr	r0, [pc, #12]	; (80001dc <frame_dummy+0x18>)
 80001ce:	f3af 8000 	nop.w
 80001d2:	bd08      	pop	{r3, pc}
 80001d4:	00000000 	.word	0x00000000
 80001d8:	20000060 	.word	0x20000060
 80001dc:	08003070 	.word	0x08003070

080001e0 <strlen>:
 80001e0:	4603      	mov	r3, r0
 80001e2:	f813 2b01 	ldrb.w	r2, [r3], #1
 80001e6:	2a00      	cmp	r2, #0
 80001e8:	d1fb      	bne.n	80001e2 <strlen+0x2>
 80001ea:	1a18      	subs	r0, r3, r0
 80001ec:	3801      	subs	r0, #1
 80001ee:	4770      	bx	lr

080001f0 <memchr>:
 80001f0:	f001 01ff 	and.w	r1, r1, #255	; 0xff
 80001f4:	2a10      	cmp	r2, #16
 80001f6:	db2b      	blt.n	8000250 <memchr+0x60>
 80001f8:	f010 0f07 	tst.w	r0, #7
 80001fc:	d008      	beq.n	8000210 <memchr+0x20>
 80001fe:	f810 3b01 	ldrb.w	r3, [r0], #1
 8000202:	3a01      	subs	r2, #1
 8000204:	428b      	cmp	r3, r1
 8000206:	d02d      	beq.n	8000264 <memchr+0x74>
 8000208:	f010 0f07 	tst.w	r0, #7
 800020c:	b342      	cbz	r2, 8000260 <memchr+0x70>
 800020e:	d1f6      	bne.n	80001fe <memchr+0xe>
 8000210:	b4f0      	push	{r4, r5, r6, r7}
 8000212:	ea41 2101 	orr.w	r1, r1, r1, lsl #8
 8000216:	ea41 4101 	orr.w	r1, r1, r1, lsl #16
 800021a:	f022 0407 	bic.w	r4, r2, #7
 800021e:	f07f 0700 	mvns.w	r7, #0
 8000222:	2300      	movs	r3, #0
 8000224:	e8f0 5602 	ldrd	r5, r6, [r0], #8
 8000228:	3c08      	subs	r4, #8
 800022a:	ea85 0501 	eor.w	r5, r5, r1
 800022e:	ea86 0601 	eor.w	r6, r6, r1
 8000232:	fa85 f547 	uadd8	r5, r5, r7
 8000236:	faa3 f587 	sel	r5, r3, r7
 800023a:	fa86 f647 	uadd8	r6, r6, r7
 800023e:	faa5 f687 	sel	r6, r5, r7
 8000242:	b98e      	cbnz	r6, 8000268 <memchr+0x78>
 8000244:	d1ee      	bne.n	8000224 <memchr+0x34>
 8000246:	bcf0      	pop	{r4, r5, r6, r7}
 8000248:	f001 01ff 	and.w	r1, r1, #255	; 0xff
 800024c:	f002 0207 	and.w	r2, r2, #7
 8000250:	b132      	cbz	r2, 8000260 <memchr+0x70>
 8000252:	f810 3b01 	ldrb.w	r3, [r0], #1
 8000256:	3a01      	subs	r2, #1
 8000258:	ea83 0301 	eor.w	r3, r3, r1
 800025c:	b113      	cbz	r3, 8000264 <memchr+0x74>
 800025e:	d1f8      	bne.n	8000252 <memchr+0x62>
 8000260:	2000      	movs	r0, #0
 8000262:	4770      	bx	lr
 8000264:	3801      	subs	r0, #1
 8000266:	4770      	bx	lr
 8000268:	2d00      	cmp	r5, #0
 800026a:	bf06      	itte	eq
 800026c:	4635      	moveq	r5, r6
 800026e:	3803      	subeq	r0, #3
 8000270:	3807      	subne	r0, #7
 8000272:	f015 0f01 	tst.w	r5, #1
 8000276:	d107      	bne.n	8000288 <memchr+0x98>
 8000278:	3001      	adds	r0, #1
 800027a:	f415 7f80 	tst.w	r5, #256	; 0x100
 800027e:	bf02      	ittt	eq
 8000280:	3001      	addeq	r0, #1
 8000282:	f415 3fc0 	tsteq.w	r5, #98304	; 0x18000
 8000286:	3001      	addeq	r0, #1
 8000288:	bcf0      	pop	{r4, r5, r6, r7}
 800028a:	3801      	subs	r0, #1
 800028c:	4770      	bx	lr
 800028e:	bf00      	nop

08000290 <__aeabi_drsub>:
 8000290:	f081 4100 	eor.w	r1, r1, #2147483648	; 0x80000000
 8000294:	e002      	b.n	800029c <__adddf3>
 8000296:	bf00      	nop

08000298 <__aeabi_dsub>:
 8000298:	f083 4300 	eor.w	r3, r3, #2147483648	; 0x80000000

0800029c <__adddf3>:
 800029c:	b530      	push	{r4, r5, lr}
 800029e:	ea4f 0441 	mov.w	r4, r1, lsl #1
 80002a2:	ea4f 0543 	mov.w	r5, r3, lsl #1
 80002a6:	ea94 0f05 	teq	r4, r5
 80002aa:	bf08      	it	eq
 80002ac:	ea90 0f02 	teqeq	r0, r2
 80002b0:	bf1f      	itttt	ne
 80002b2:	ea54 0c00 	orrsne.w	ip, r4, r0
 80002b6:	ea55 0c02 	orrsne.w	ip, r5, r2
 80002ba:	ea7f 5c64 	mvnsne.w	ip, r4, asr #21
 80002be:	ea7f 5c65 	mvnsne.w	ip, r5, asr #21
 80002c2:	f000 80e2 	beq.w	800048a <__adddf3+0x1ee>
 80002c6:	ea4f 5454 	mov.w	r4, r4, lsr #21
 80002ca:	ebd4 5555 	rsbs	r5, r4, r5, lsr #21
 80002ce:	bfb8      	it	lt
 80002d0:	426d      	neglt	r5, r5
 80002d2:	dd0c      	ble.n	80002ee <__adddf3+0x52>
 80002d4:	442c      	add	r4, r5
 80002d6:	ea80 0202 	eor.w	r2, r0, r2
 80002da:	ea81 0303 	eor.w	r3, r1, r3
 80002de:	ea82 0000 	eor.w	r0, r2, r0
 80002e2:	ea83 0101 	eor.w	r1, r3, r1
 80002e6:	ea80 0202 	eor.w	r2, r0, r2
 80002ea:	ea81 0303 	eor.w	r3, r1, r3
 80002ee:	2d36      	cmp	r5, #54	; 0x36
 80002f0:	bf88      	it	hi
 80002f2:	bd30      	pophi	{r4, r5, pc}
 80002f4:	f011 4f00 	tst.w	r1, #2147483648	; 0x80000000
 80002f8:	ea4f 3101 	mov.w	r1, r1, lsl #12
 80002fc:	f44f 1c80 	mov.w	ip, #1048576	; 0x100000
 8000300:	ea4c 3111 	orr.w	r1, ip, r1, lsr #12
 8000304:	d002      	beq.n	800030c <__adddf3+0x70>
 8000306:	4240      	negs	r0, r0
 8000308:	eb61 0141 	sbc.w	r1, r1, r1, lsl #1
 800030c:	f013 4f00 	tst.w	r3, #2147483648	; 0x80000000
 8000310:	ea4f 3303 	mov.w	r3, r3, lsl #12
 8000314:	ea4c 3313 	orr.w	r3, ip, r3, lsr #12
 8000318:	d002      	beq.n	8000320 <__adddf3+0x84>
 800031a:	4252      	negs	r2, r2
 800031c:	eb63 0343 	sbc.w	r3, r3, r3, lsl #1
 8000320:	ea94 0f05 	teq	r4, r5
 8000324:	f000 80a7 	beq.w	8000476 <__adddf3+0x1da>
 8000328:	f1a4 0401 	sub.w	r4, r4, #1
 800032c:	f1d5 0e20 	rsbs	lr, r5, #32
 8000330:	db0d      	blt.n	800034e <__adddf3+0xb2>
 8000332:	fa02 fc0e 	lsl.w	ip, r2, lr
 8000336:	fa22 f205 	lsr.w	r2, r2, r5
 800033a:	1880      	adds	r0, r0, r2
 800033c:	f141 0100 	adc.w	r1, r1, #0
 8000340:	fa03 f20e 	lsl.w	r2, r3, lr
 8000344:	1880      	adds	r0, r0, r2
 8000346:	fa43 f305 	asr.w	r3, r3, r5
 800034a:	4159      	adcs	r1, r3
 800034c:	e00e      	b.n	800036c <__adddf3+0xd0>
 800034e:	f1a5 0520 	sub.w	r5, r5, #32
 8000352:	f10e 0e20 	add.w	lr, lr, #32
 8000356:	2a01      	cmp	r2, #1
 8000358:	fa03 fc0e 	lsl.w	ip, r3, lr
 800035c:	bf28      	it	cs
 800035e:	f04c 0c02 	orrcs.w	ip, ip, #2
 8000362:	fa43 f305 	asr.w	r3, r3, r5
 8000366:	18c0      	adds	r0, r0, r3
 8000368:	eb51 71e3 	adcs.w	r1, r1, r3, asr #31
 800036c:	f001 4500 	and.w	r5, r1, #2147483648	; 0x80000000
 8000370:	d507      	bpl.n	8000382 <__adddf3+0xe6>
 8000372:	f04f 0e00 	mov.w	lr, #0
 8000376:	f1dc 0c00 	rsbs	ip, ip, #0
 800037a:	eb7e 0000 	sbcs.w	r0, lr, r0
 800037e:	eb6e 0101 	sbc.w	r1, lr, r1
 8000382:	f5b1 1f80 	cmp.w	r1, #1048576	; 0x100000
 8000386:	d31b      	bcc.n	80003c0 <__adddf3+0x124>
 8000388:	f5b1 1f00 	cmp.w	r1, #2097152	; 0x200000
 800038c:	d30c      	bcc.n	80003a8 <__adddf3+0x10c>
 800038e:	0849      	lsrs	r1, r1, #1
 8000390:	ea5f 0030 	movs.w	r0, r0, rrx
 8000394:	ea4f 0c3c 	mov.w	ip, ip, rrx
 8000398:	f104 0401 	add.w	r4, r4, #1
 800039c:	ea4f 5244 	mov.w	r2, r4, lsl #21
 80003a0:	f512 0f80 	cmn.w	r2, #4194304	; 0x400000
 80003a4:	f080 809a 	bcs.w	80004dc <__adddf3+0x240>
 80003a8:	f1bc 4f00 	cmp.w	ip, #2147483648	; 0x80000000
 80003ac:	bf08      	it	eq
 80003ae:	ea5f 0c50 	movseq.w	ip, r0, lsr #1
 80003b2:	f150 0000 	adcs.w	r0, r0, #0
 80003b6:	eb41 5104 	adc.w	r1, r1, r4, lsl #20
 80003ba:	ea41 0105 	orr.w	r1, r1, r5
 80003be:	bd30      	pop	{r4, r5, pc}
 80003c0:	ea5f 0c4c 	movs.w	ip, ip, lsl #1
 80003c4:	4140      	adcs	r0, r0
 80003c6:	eb41 0101 	adc.w	r1, r1, r1
 80003ca:	3c01      	subs	r4, #1
 80003cc:	bf28      	it	cs
 80003ce:	f5b1 1f80 	cmpcs.w	r1, #1048576	; 0x100000
 80003d2:	d2e9      	bcs.n	80003a8 <__adddf3+0x10c>
 80003d4:	f091 0f00 	teq	r1, #0
 80003d8:	bf04      	itt	eq
 80003da:	4601      	moveq	r1, r0
 80003dc:	2000      	moveq	r0, #0
 80003de:	fab1 f381 	clz	r3, r1
 80003e2:	bf08      	it	eq
 80003e4:	3320      	addeq	r3, #32
 80003e6:	f1a3 030b 	sub.w	r3, r3, #11
 80003ea:	f1b3 0220 	subs.w	r2, r3, #32
 80003ee:	da0c      	bge.n	800040a <__adddf3+0x16e>
 80003f0:	320c      	adds	r2, #12
 80003f2:	dd08      	ble.n	8000406 <__adddf3+0x16a>
 80003f4:	f102 0c14 	add.w	ip, r2, #20
 80003f8:	f1c2 020c 	rsb	r2, r2, #12
 80003fc:	fa01 f00c 	lsl.w	r0, r1, ip
 8000400:	fa21 f102 	lsr.w	r1, r1, r2
 8000404:	e00c      	b.n	8000420 <__adddf3+0x184>
 8000406:	f102 0214 	add.w	r2, r2, #20
 800040a:	bfd8      	it	le
 800040c:	f1c2 0c20 	rsble	ip, r2, #32
 8000410:	fa01 f102 	lsl.w	r1, r1, r2
 8000414:	fa20 fc0c 	lsr.w	ip, r0, ip
 8000418:	bfdc      	itt	le
 800041a:	ea41 010c 	orrle.w	r1, r1, ip
 800041e:	4090      	lslle	r0, r2
 8000420:	1ae4      	subs	r4, r4, r3
 8000422:	bfa2      	ittt	ge
 8000424:	eb01 5104 	addge.w	r1, r1, r4, lsl #20
 8000428:	4329      	orrge	r1, r5
 800042a:	bd30      	popge	{r4, r5, pc}
 800042c:	ea6f 0404 	mvn.w	r4, r4
 8000430:	3c1f      	subs	r4, #31
 8000432:	da1c      	bge.n	800046e <__adddf3+0x1d2>
 8000434:	340c      	adds	r4, #12
 8000436:	dc0e      	bgt.n	8000456 <__adddf3+0x1ba>
 8000438:	f104 0414 	add.w	r4, r4, #20
 800043c:	f1c4 0220 	rsb	r2, r4, #32
 8000440:	fa20 f004 	lsr.w	r0, r0, r4
 8000444:	fa01 f302 	lsl.w	r3, r1, r2
 8000448:	ea40 0003 	orr.w	r0, r0, r3
 800044c:	fa21 f304 	lsr.w	r3, r1, r4
 8000450:	ea45 0103 	orr.w	r1, r5, r3
 8000454:	bd30      	pop	{r4, r5, pc}
 8000456:	f1c4 040c 	rsb	r4, r4, #12
 800045a:	f1c4 0220 	rsb	r2, r4, #32
 800045e:	fa20 f002 	lsr.w	r0, r0, r2
 8000462:	fa01 f304 	lsl.w	r3, r1, r4
 8000466:	ea40 0003 	orr.w	r0, r0, r3
 800046a:	4629      	mov	r1, r5
 800046c:	bd30      	pop	{r4, r5, pc}
 800046e:	fa21 f004 	lsr.w	r0, r1, r4
 8000472:	4629      	mov	r1, r5
 8000474:	bd30      	pop	{r4, r5, pc}
 8000476:	f094 0f00 	teq	r4, #0
 800047a:	f483 1380 	eor.w	r3, r3, #1048576	; 0x100000
 800047e:	bf06      	itte	eq
 8000480:	f481 1180 	eoreq.w	r1, r1, #1048576	; 0x100000
 8000484:	3401      	addeq	r4, #1
 8000486:	3d01      	subne	r5, #1
 8000488:	e74e      	b.n	8000328 <__adddf3+0x8c>
 800048a:	ea7f 5c64 	mvns.w	ip, r4, asr #21
 800048e:	bf18      	it	ne
 8000490:	ea7f 5c65 	mvnsne.w	ip, r5, asr #21
 8000494:	d029      	beq.n	80004ea <__adddf3+0x24e>
 8000496:	ea94 0f05 	teq	r4, r5
 800049a:	bf08      	it	eq
 800049c:	ea90 0f02 	teqeq	r0, r2
 80004a0:	d005      	beq.n	80004ae <__adddf3+0x212>
 80004a2:	ea54 0c00 	orrs.w	ip, r4, r0
 80004a6:	bf04      	itt	eq
 80004a8:	4619      	moveq	r1, r3
 80004aa:	4610      	moveq	r0, r2
 80004ac:	bd30      	pop	{r4, r5, pc}
 80004ae:	ea91 0f03 	teq	r1, r3
 80004b2:	bf1e      	ittt	ne
 80004b4:	2100      	movne	r1, #0
 80004b6:	2000      	movne	r0, #0
 80004b8:	bd30      	popne	{r4, r5, pc}
 80004ba:	ea5f 5c54 	movs.w	ip, r4, lsr #21
 80004be:	d105      	bne.n	80004cc <__adddf3+0x230>
 80004c0:	0040      	lsls	r0, r0, #1
 80004c2:	4149      	adcs	r1, r1
 80004c4:	bf28      	it	cs
 80004c6:	f041 4100 	orrcs.w	r1, r1, #2147483648	; 0x80000000
 80004ca:	bd30      	pop	{r4, r5, pc}
 80004cc:	f514 0480 	adds.w	r4, r4, #4194304	; 0x400000
 80004d0:	bf3c      	itt	cc
 80004d2:	f501 1180 	addcc.w	r1, r1, #1048576	; 0x100000
 80004d6:	bd30      	popcc	{r4, r5, pc}
 80004d8:	f001 4500 	and.w	r5, r1, #2147483648	; 0x80000000
 80004dc:	f045 41fe 	orr.w	r1, r5, #2130706432	; 0x7f000000
 80004e0:	f441 0170 	orr.w	r1, r1, #15728640	; 0xf00000
 80004e4:	f04f 0000 	mov.w	r0, #0
 80004e8:	bd30      	pop	{r4, r5, pc}
 80004ea:	ea7f 5c64 	mvns.w	ip, r4, asr #21
 80004ee:	bf1a      	itte	ne
 80004f0:	4619      	movne	r1, r3
 80004f2:	4610      	movne	r0, r2
 80004f4:	ea7f 5c65 	mvnseq.w	ip, r5, asr #21
 80004f8:	bf1c      	itt	ne
 80004fa:	460b      	movne	r3, r1
 80004fc:	4602      	movne	r2, r0
 80004fe:	ea50 3401 	orrs.w	r4, r0, r1, lsl #12
 8000502:	bf06      	itte	eq
 8000504:	ea52 3503 	orrseq.w	r5, r2, r3, lsl #12
 8000508:	ea91 0f03 	teqeq	r1, r3
 800050c:	f441 2100 	orrne.w	r1, r1, #524288	; 0x80000
 8000510:	bd30      	pop	{r4, r5, pc}
 8000512:	bf00      	nop

08000514 <__aeabi_ui2d>:
 8000514:	f090 0f00 	teq	r0, #0
 8000518:	bf04      	itt	eq
 800051a:	2100      	moveq	r1, #0
 800051c:	4770      	bxeq	lr
 800051e:	b530      	push	{r4, r5, lr}
 8000520:	f44f 6480 	mov.w	r4, #1024	; 0x400
 8000524:	f104 0432 	add.w	r4, r4, #50	; 0x32
 8000528:	f04f 0500 	mov.w	r5, #0
 800052c:	f04f 0100 	mov.w	r1, #0
 8000530:	e750      	b.n	80003d4 <__adddf3+0x138>
 8000532:	bf00      	nop

08000534 <__aeabi_i2d>:
 8000534:	f090 0f00 	teq	r0, #0
 8000538:	bf04      	itt	eq
 800053a:	2100      	moveq	r1, #0
 800053c:	4770      	bxeq	lr
 800053e:	b530      	push	{r4, r5, lr}
 8000540:	f44f 6480 	mov.w	r4, #1024	; 0x400
 8000544:	f104 0432 	add.w	r4, r4, #50	; 0x32
 8000548:	f010 4500 	ands.w	r5, r0, #2147483648	; 0x80000000
 800054c:	bf48      	it	mi
 800054e:	4240      	negmi	r0, r0
 8000550:	f04f 0100 	mov.w	r1, #0
 8000554:	e73e      	b.n	80003d4 <__adddf3+0x138>
 8000556:	bf00      	nop

08000558 <__aeabi_f2d>:
 8000558:	0042      	lsls	r2, r0, #1
 800055a:	ea4f 01e2 	mov.w	r1, r2, asr #3
 800055e:	ea4f 0131 	mov.w	r1, r1, rrx
 8000562:	ea4f 7002 	mov.w	r0, r2, lsl #28
 8000566:	bf1f      	itttt	ne
 8000568:	f012 437f 	andsne.w	r3, r2, #4278190080	; 0xff000000
 800056c:	f093 4f7f 	teqne	r3, #4278190080	; 0xff000000
 8000570:	f081 5160 	eorne.w	r1, r1, #939524096	; 0x38000000
 8000574:	4770      	bxne	lr
 8000576:	f032 427f 	bics.w	r2, r2, #4278190080	; 0xff000000
 800057a:	bf08      	it	eq
 800057c:	4770      	bxeq	lr
 800057e:	f093 4f7f 	teq	r3, #4278190080	; 0xff000000
 8000582:	bf04      	itt	eq
 8000584:	f441 2100 	orreq.w	r1, r1, #524288	; 0x80000
 8000588:	4770      	bxeq	lr
 800058a:	b530      	push	{r4, r5, lr}
 800058c:	f44f 7460 	mov.w	r4, #896	; 0x380
 8000590:	f001 4500 	and.w	r5, r1, #2147483648	; 0x80000000
 8000594:	f021 4100 	bic.w	r1, r1, #2147483648	; 0x80000000
 8000598:	e71c      	b.n	80003d4 <__adddf3+0x138>
 800059a:	bf00      	nop

0800059c <__aeabi_ul2d>:
 800059c:	ea50 0201 	orrs.w	r2, r0, r1
 80005a0:	bf08      	it	eq
 80005a2:	4770      	bxeq	lr
 80005a4:	b530      	push	{r4, r5, lr}
 80005a6:	f04f 0500 	mov.w	r5, #0
 80005aa:	e00a      	b.n	80005c2 <__aeabi_l2d+0x16>

080005ac <__aeabi_l2d>:
 80005ac:	ea50 0201 	orrs.w	r2, r0, r1
 80005b0:	bf08      	it	eq
 80005b2:	4770      	bxeq	lr
 80005b4:	b530      	push	{r4, r5, lr}
 80005b6:	f011 4500 	ands.w	r5, r1, #2147483648	; 0x80000000
 80005ba:	d502      	bpl.n	80005c2 <__aeabi_l2d+0x16>
 80005bc:	4240      	negs	r0, r0
 80005be:	eb61 0141 	sbc.w	r1, r1, r1, lsl #1
 80005c2:	f44f 6480 	mov.w	r4, #1024	; 0x400
 80005c6:	f104 0432 	add.w	r4, r4, #50	; 0x32
 80005ca:	ea5f 5c91 	movs.w	ip, r1, lsr #22
 80005ce:	f43f aed8 	beq.w	8000382 <__adddf3+0xe6>
 80005d2:	f04f 0203 	mov.w	r2, #3
 80005d6:	ea5f 0cdc 	movs.w	ip, ip, lsr #3
 80005da:	bf18      	it	ne
 80005dc:	3203      	addne	r2, #3
 80005de:	ea5f 0cdc 	movs.w	ip, ip, lsr #3
 80005e2:	bf18      	it	ne
 80005e4:	3203      	addne	r2, #3
 80005e6:	eb02 02dc 	add.w	r2, r2, ip, lsr #3
 80005ea:	f1c2 0320 	rsb	r3, r2, #32
 80005ee:	fa00 fc03 	lsl.w	ip, r0, r3
 80005f2:	fa20 f002 	lsr.w	r0, r0, r2
 80005f6:	fa01 fe03 	lsl.w	lr, r1, r3
 80005fa:	ea40 000e 	orr.w	r0, r0, lr
 80005fe:	fa21 f102 	lsr.w	r1, r1, r2
 8000602:	4414      	add	r4, r2
 8000604:	e6bd      	b.n	8000382 <__adddf3+0xe6>
 8000606:	bf00      	nop

08000608 <__aeabi_uldivmod>:
 8000608:	b953      	cbnz	r3, 8000620 <__aeabi_uldivmod+0x18>
 800060a:	b94a      	cbnz	r2, 8000620 <__aeabi_uldivmod+0x18>
 800060c:	2900      	cmp	r1, #0
 800060e:	bf08      	it	eq
 8000610:	2800      	cmpeq	r0, #0
 8000612:	bf1c      	itt	ne
 8000614:	f04f 31ff 	movne.w	r1, #4294967295
 8000618:	f04f 30ff 	movne.w	r0, #4294967295
 800061c:	f000 b970 	b.w	8000900 <__aeabi_idiv0>
 8000620:	f1ad 0c08 	sub.w	ip, sp, #8
 8000624:	e96d ce04 	strd	ip, lr, [sp, #-16]!
 8000628:	f000 f806 	bl	8000638 <__udivmoddi4>
 800062c:	f8dd e004 	ldr.w	lr, [sp, #4]
 8000630:	e9dd 2302 	ldrd	r2, r3, [sp, #8]
 8000634:	b004      	add	sp, #16
 8000636:	4770      	bx	lr

08000638 <__udivmoddi4>:
 8000638:	e92d 47f0 	stmdb	sp!, {r4, r5, r6, r7, r8, r9, sl, lr}
 800063c:	9e08      	ldr	r6, [sp, #32]
 800063e:	460d      	mov	r5, r1
 8000640:	4604      	mov	r4, r0
 8000642:	460f      	mov	r7, r1
 8000644:	2b00      	cmp	r3, #0
 8000646:	d14a      	bne.n	80006de <__udivmoddi4+0xa6>
 8000648:	428a      	cmp	r2, r1
 800064a:	4694      	mov	ip, r2
 800064c:	d965      	bls.n	800071a <__udivmoddi4+0xe2>
 800064e:	fab2 f382 	clz	r3, r2
 8000652:	b143      	cbz	r3, 8000666 <__udivmoddi4+0x2e>
 8000654:	fa02 fc03 	lsl.w	ip, r2, r3
 8000658:	f1c3 0220 	rsb	r2, r3, #32
 800065c:	409f      	lsls	r7, r3
 800065e:	fa20 f202 	lsr.w	r2, r0, r2
 8000662:	4317      	orrs	r7, r2
 8000664:	409c      	lsls	r4, r3
 8000666:	ea4f 4e1c 	mov.w	lr, ip, lsr #16
 800066a:	fa1f f58c 	uxth.w	r5, ip
 800066e:	fbb7 f1fe 	udiv	r1, r7, lr
 8000672:	0c22      	lsrs	r2, r4, #16
 8000674:	fb0e 7711 	mls	r7, lr, r1, r7
 8000678:	ea42 4207 	orr.w	r2, r2, r7, lsl #16
 800067c:	fb01 f005 	mul.w	r0, r1, r5
 8000680:	4290      	cmp	r0, r2
 8000682:	d90a      	bls.n	800069a <__udivmoddi4+0x62>
 8000684:	eb1c 0202 	adds.w	r2, ip, r2
 8000688:	f101 37ff 	add.w	r7, r1, #4294967295
 800068c:	f080 811c 	bcs.w	80008c8 <__udivmoddi4+0x290>
 8000690:	4290      	cmp	r0, r2
 8000692:	f240 8119 	bls.w	80008c8 <__udivmoddi4+0x290>
 8000696:	3902      	subs	r1, #2
 8000698:	4462      	add	r2, ip
 800069a:	1a12      	subs	r2, r2, r0
 800069c:	b2a4      	uxth	r4, r4
 800069e:	fbb2 f0fe 	udiv	r0, r2, lr
 80006a2:	fb0e 2210 	mls	r2, lr, r0, r2
 80006a6:	ea44 4402 	orr.w	r4, r4, r2, lsl #16
 80006aa:	fb00 f505 	mul.w	r5, r0, r5
 80006ae:	42a5      	cmp	r5, r4
 80006b0:	d90a      	bls.n	80006c8 <__udivmoddi4+0x90>
 80006b2:	eb1c 0404 	adds.w	r4, ip, r4
 80006b6:	f100 32ff 	add.w	r2, r0, #4294967295
 80006ba:	f080 8107 	bcs.w	80008cc <__udivmoddi4+0x294>
 80006be:	42a5      	cmp	r5, r4
 80006c0:	f240 8104 	bls.w	80008cc <__udivmoddi4+0x294>
 80006c4:	4464      	add	r4, ip
 80006c6:	3802      	subs	r0, #2
 80006c8:	ea40 4001 	orr.w	r0, r0, r1, lsl #16
 80006cc:	1b64      	subs	r4, r4, r5
 80006ce:	2100      	movs	r1, #0
 80006d0:	b11e      	cbz	r6, 80006da <__udivmoddi4+0xa2>
 80006d2:	40dc      	lsrs	r4, r3
 80006d4:	2300      	movs	r3, #0
 80006d6:	e9c6 4300 	strd	r4, r3, [r6]
 80006da:	e8bd 87f0 	ldmia.w	sp!, {r4, r5, r6, r7, r8, r9, sl, pc}
 80006de:	428b      	cmp	r3, r1
 80006e0:	d908      	bls.n	80006f4 <__udivmoddi4+0xbc>
 80006e2:	2e00      	cmp	r6, #0
 80006e4:	f000 80ed 	beq.w	80008c2 <__udivmoddi4+0x28a>
 80006e8:	2100      	movs	r1, #0
 80006ea:	e9c6 0500 	strd	r0, r5, [r6]
 80006ee:	4608      	mov	r0, r1
 80006f0:	e8bd 87f0 	ldmia.w	sp!, {r4, r5, r6, r7, r8, r9, sl, pc}
 80006f4:	fab3 f183 	clz	r1, r3
 80006f8:	2900      	cmp	r1, #0
 80006fa:	d149      	bne.n	8000790 <__udivmoddi4+0x158>
 80006fc:	42ab      	cmp	r3, r5
 80006fe:	d302      	bcc.n	8000706 <__udivmoddi4+0xce>
 8000700:	4282      	cmp	r2, r0
 8000702:	f200 80f8 	bhi.w	80008f6 <__udivmoddi4+0x2be>
 8000706:	1a84      	subs	r4, r0, r2
 8000708:	eb65 0203 	sbc.w	r2, r5, r3
 800070c:	2001      	movs	r0, #1
 800070e:	4617      	mov	r7, r2
 8000710:	2e00      	cmp	r6, #0
 8000712:	d0e2      	beq.n	80006da <__udivmoddi4+0xa2>
 8000714:	e9c6 4700 	strd	r4, r7, [r6]
 8000718:	e7df      	b.n	80006da <__udivmoddi4+0xa2>
 800071a:	b902      	cbnz	r2, 800071e <__udivmoddi4+0xe6>
 800071c:	deff      	udf	#255	; 0xff
 800071e:	fab2 f382 	clz	r3, r2
 8000722:	2b00      	cmp	r3, #0
 8000724:	f040 8090 	bne.w	8000848 <__udivmoddi4+0x210>
 8000728:	1a8a      	subs	r2, r1, r2
 800072a:	ea4f 471c 	mov.w	r7, ip, lsr #16
 800072e:	fa1f fe8c 	uxth.w	lr, ip
 8000732:	2101      	movs	r1, #1
 8000734:	fbb2 f5f7 	udiv	r5, r2, r7
 8000738:	fb07 2015 	mls	r0, r7, r5, r2
 800073c:	0c22      	lsrs	r2, r4, #16
 800073e:	ea42 4200 	orr.w	r2, r2, r0, lsl #16
 8000742:	fb0e f005 	mul.w	r0, lr, r5
 8000746:	4290      	cmp	r0, r2
 8000748:	d908      	bls.n	800075c <__udivmoddi4+0x124>
 800074a:	eb1c 0202 	adds.w	r2, ip, r2
 800074e:	f105 38ff 	add.w	r8, r5, #4294967295
 8000752:	d202      	bcs.n	800075a <__udivmoddi4+0x122>
 8000754:	4290      	cmp	r0, r2
 8000756:	f200 80cb 	bhi.w	80008f0 <__udivmoddi4+0x2b8>
 800075a:	4645      	mov	r5, r8
 800075c:	1a12      	subs	r2, r2, r0
 800075e:	b2a4      	uxth	r4, r4
 8000760:	fbb2 f0f7 	udiv	r0, r2, r7
 8000764:	fb07 2210 	mls	r2, r7, r0, r2
 8000768:	ea44 4402 	orr.w	r4, r4, r2, lsl #16
 800076c:	fb0e fe00 	mul.w	lr, lr, r0
 8000770:	45a6      	cmp	lr, r4
 8000772:	d908      	bls.n	8000786 <__udivmoddi4+0x14e>
 8000774:	eb1c 0404 	adds.w	r4, ip, r4
 8000778:	f100 32ff 	add.w	r2, r0, #4294967295
 800077c:	d202      	bcs.n	8000784 <__udivmoddi4+0x14c>
 800077e:	45a6      	cmp	lr, r4
 8000780:	f200 80bb 	bhi.w	80008fa <__udivmoddi4+0x2c2>
 8000784:	4610      	mov	r0, r2
 8000786:	eba4 040e 	sub.w	r4, r4, lr
 800078a:	ea40 4005 	orr.w	r0, r0, r5, lsl #16
 800078e:	e79f      	b.n	80006d0 <__udivmoddi4+0x98>
 8000790:	f1c1 0720 	rsb	r7, r1, #32
 8000794:	408b      	lsls	r3, r1
 8000796:	fa22 fc07 	lsr.w	ip, r2, r7
 800079a:	ea4c 0c03 	orr.w	ip, ip, r3
 800079e:	fa05 f401 	lsl.w	r4, r5, r1
 80007a2:	fa20 f307 	lsr.w	r3, r0, r7
 80007a6:	40fd      	lsrs	r5, r7
 80007a8:	ea4f 491c 	mov.w	r9, ip, lsr #16
 80007ac:	4323      	orrs	r3, r4
 80007ae:	fbb5 f8f9 	udiv	r8, r5, r9
 80007b2:	fa1f fe8c 	uxth.w	lr, ip
 80007b6:	fb09 5518 	mls	r5, r9, r8, r5
 80007ba:	0c1c      	lsrs	r4, r3, #16
 80007bc:	ea44 4405 	orr.w	r4, r4, r5, lsl #16
 80007c0:	fb08 f50e 	mul.w	r5, r8, lr
 80007c4:	42a5      	cmp	r5, r4
 80007c6:	fa02 f201 	lsl.w	r2, r2, r1
 80007ca:	fa00 f001 	lsl.w	r0, r0, r1
 80007ce:	d90b      	bls.n	80007e8 <__udivmoddi4+0x1b0>
 80007d0:	eb1c 0404 	adds.w	r4, ip, r4
 80007d4:	f108 3aff 	add.w	sl, r8, #4294967295
 80007d8:	f080 8088 	bcs.w	80008ec <__udivmoddi4+0x2b4>
 80007dc:	42a5      	cmp	r5, r4
 80007de:	f240 8085 	bls.w	80008ec <__udivmoddi4+0x2b4>
 80007e2:	f1a8 0802 	sub.w	r8, r8, #2
 80007e6:	4464      	add	r4, ip
 80007e8:	1b64      	subs	r4, r4, r5
 80007ea:	b29d      	uxth	r5, r3
 80007ec:	fbb4 f3f9 	udiv	r3, r4, r9
 80007f0:	fb09 4413 	mls	r4, r9, r3, r4
 80007f4:	ea45 4404 	orr.w	r4, r5, r4, lsl #16
 80007f8:	fb03 fe0e 	mul.w	lr, r3, lr
 80007fc:	45a6      	cmp	lr, r4
 80007fe:	d908      	bls.n	8000812 <__udivmoddi4+0x1da>
 8000800:	eb1c 0404 	adds.w	r4, ip, r4
 8000804:	f103 35ff 	add.w	r5, r3, #4294967295
 8000808:	d26c      	bcs.n	80008e4 <__udivmoddi4+0x2ac>
 800080a:	45a6      	cmp	lr, r4
 800080c:	d96a      	bls.n	80008e4 <__udivmoddi4+0x2ac>
 800080e:	3b02      	subs	r3, #2
 8000810:	4464      	add	r4, ip
 8000812:	ea43 4308 	orr.w	r3, r3, r8, lsl #16
 8000816:	fba3 9502 	umull	r9, r5, r3, r2
 800081a:	eba4 040e 	sub.w	r4, r4, lr
 800081e:	42ac      	cmp	r4, r5
 8000820:	46c8      	mov	r8, r9
 8000822:	46ae      	mov	lr, r5
 8000824:	d356      	bcc.n	80008d4 <__udivmoddi4+0x29c>
 8000826:	d053      	beq.n	80008d0 <__udivmoddi4+0x298>
 8000828:	b156      	cbz	r6, 8000840 <__udivmoddi4+0x208>
 800082a:	ebb0 0208 	subs.w	r2, r0, r8
 800082e:	eb64 040e 	sbc.w	r4, r4, lr
 8000832:	fa04 f707 	lsl.w	r7, r4, r7
 8000836:	40ca      	lsrs	r2, r1
 8000838:	40cc      	lsrs	r4, r1
 800083a:	4317      	orrs	r7, r2
 800083c:	e9c6 7400 	strd	r7, r4, [r6]
 8000840:	4618      	mov	r0, r3
 8000842:	2100      	movs	r1, #0
 8000844:	e8bd 87f0 	ldmia.w	sp!, {r4, r5, r6, r7, r8, r9, sl, pc}
 8000848:	f1c3 0120 	rsb	r1, r3, #32
 800084c:	fa02 fc03 	lsl.w	ip, r2, r3
 8000850:	fa20 f201 	lsr.w	r2, r0, r1
 8000854:	fa25 f101 	lsr.w	r1, r5, r1
 8000858:	409d      	lsls	r5, r3
 800085a:	432a      	orrs	r2, r5
 800085c:	ea4f 471c 	mov.w	r7, ip, lsr #16
 8000860:	fa1f fe8c 	uxth.w	lr, ip
 8000864:	fbb1 f0f7 	udiv	r0, r1, r7
 8000868:	fb07 1510 	mls	r5, r7, r0, r1
 800086c:	0c11      	lsrs	r1, r2, #16
 800086e:	ea41 4105 	orr.w	r1, r1, r5, lsl #16
 8000872:	fb00 f50e 	mul.w	r5, r0, lr
 8000876:	428d      	cmp	r5, r1
 8000878:	fa04 f403 	lsl.w	r4, r4, r3
 800087c:	d908      	bls.n	8000890 <__udivmoddi4+0x258>
 800087e:	eb1c 0101 	adds.w	r1, ip, r1
 8000882:	f100 38ff 	add.w	r8, r0, #4294967295
 8000886:	d22f      	bcs.n	80008e8 <__udivmoddi4+0x2b0>
 8000888:	428d      	cmp	r5, r1
 800088a:	d92d      	bls.n	80008e8 <__udivmoddi4+0x2b0>
 800088c:	3802      	subs	r0, #2
 800088e:	4461      	add	r1, ip
 8000890:	1b49      	subs	r1, r1, r5
 8000892:	b292      	uxth	r2, r2
 8000894:	fbb1 f5f7 	udiv	r5, r1, r7
 8000898:	fb07 1115 	mls	r1, r7, r5, r1
 800089c:	ea42 4201 	orr.w	r2, r2, r1, lsl #16
 80008a0:	fb05 f10e 	mul.w	r1, r5, lr
 80008a4:	4291      	cmp	r1, r2
 80008a6:	d908      	bls.n	80008ba <__udivmoddi4+0x282>
 80008a8:	eb1c 0202 	adds.w	r2, ip, r2
 80008ac:	f105 38ff 	add.w	r8, r5, #4294967295
 80008b0:	d216      	bcs.n	80008e0 <__udivmoddi4+0x2a8>
 80008b2:	4291      	cmp	r1, r2
 80008b4:	d914      	bls.n	80008e0 <__udivmoddi4+0x2a8>
 80008b6:	3d02      	subs	r5, #2
 80008b8:	4462      	add	r2, ip
 80008ba:	1a52      	subs	r2, r2, r1
 80008bc:	ea45 4100 	orr.w	r1, r5, r0, lsl #16
 80008c0:	e738      	b.n	8000734 <__udivmoddi4+0xfc>
 80008c2:	4631      	mov	r1, r6
 80008c4:	4630      	mov	r0, r6
 80008c6:	e708      	b.n	80006da <__udivmoddi4+0xa2>
 80008c8:	4639      	mov	r1, r7
 80008ca:	e6e6      	b.n	800069a <__udivmoddi4+0x62>
 80008cc:	4610      	mov	r0, r2
 80008ce:	e6fb      	b.n	80006c8 <__udivmoddi4+0x90>
 80008d0:	4548      	cmp	r0, r9
 80008d2:	d2a9      	bcs.n	8000828 <__udivmoddi4+0x1f0>
 80008d4:	ebb9 0802 	subs.w	r8, r9, r2
 80008d8:	eb65 0e0c 	sbc.w	lr, r5, ip
 80008dc:	3b01      	subs	r3, #1
 80008de:	e7a3      	b.n	8000828 <__udivmoddi4+0x1f0>
 80008e0:	4645      	mov	r5, r8
 80008e2:	e7ea      	b.n	80008ba <__udivmoddi4+0x282>
 80008e4:	462b      	mov	r3, r5
 80008e6:	e794      	b.n	8000812 <__udivmoddi4+0x1da>
 80008e8:	4640      	mov	r0, r8
 80008ea:	e7d1      	b.n	8000890 <__udivmoddi4+0x258>
 80008ec:	46d0      	mov	r8, sl
 80008ee:	e77b      	b.n	80007e8 <__udivmoddi4+0x1b0>
 80008f0:	3d02      	subs	r5, #2
 80008f2:	4462      	add	r2, ip
 80008f4:	e732      	b.n	800075c <__udivmoddi4+0x124>
 80008f6:	4608      	mov	r0, r1
 80008f8:	e70a      	b.n	8000710 <__udivmoddi4+0xd8>
 80008fa:	4464      	add	r4, ip
 80008fc:	3802      	subs	r0, #2
 80008fe:	e742      	b.n	8000786 <__udivmoddi4+0x14e>

08000900 <__aeabi_idiv0>:
 8000900:	4770      	bx	lr
 8000902:	bf00      	nop

08000904 <HAL_UART_RxCpltCallback>:
 8000904:	b510      	push	{r4, lr}
 8000906:	4c1d      	ldr	r4, [pc, #116]	; (800097c <HAL_UART_RxCpltCallback+0x78>)
 8000908:	6802      	ldr	r2, [r0, #0]
 800090a:	6823      	ldr	r3, [r4, #0]
 800090c:	429a      	cmp	r2, r3
 800090e:	d134      	bne.n	800097a <HAL_UART_RxCpltCallback+0x76>
 8000910:	4b1b      	ldr	r3, [pc, #108]	; (8000980 <HAL_UART_RxCpltCallback+0x7c>)
 8000912:	781b      	ldrb	r3, [r3, #0]
 8000914:	2b6c      	cmp	r3, #108	; 0x6c
 8000916:	d02c      	beq.n	8000972 <HAL_UART_RxCpltCallback+0x6e>
 8000918:	d807      	bhi.n	800092a <HAL_UART_RxCpltCallback+0x26>
 800091a:	2b62      	cmp	r3, #98	; 0x62
 800091c:	d022      	beq.n	8000964 <HAL_UART_RxCpltCallback+0x60>
 800091e:	2b66      	cmp	r3, #102	; 0x66
 8000920:	d009      	beq.n	8000936 <HAL_UART_RxCpltCallback+0x32>
 8000922:	4918      	ldr	r1, [pc, #96]	; (8000984 <HAL_UART_RxCpltCallback+0x80>)
 8000924:	2364      	movs	r3, #100	; 0x64
 8000926:	2201      	movs	r2, #1
 8000928:	e01f      	b.n	800096a <HAL_UART_RxCpltCallback+0x66>
 800092a:	2b72      	cmp	r3, #114	; 0x72
 800092c:	d1f9      	bne.n	8000922 <HAL_UART_RxCpltCallback+0x1e>
 800092e:	4916      	ldr	r1, [pc, #88]	; (8000988 <HAL_UART_RxCpltCallback+0x84>)
 8000930:	2364      	movs	r3, #100	; 0x64
 8000932:	2201      	movs	r2, #1
 8000934:	e019      	b.n	800096a <HAL_UART_RxCpltCallback+0x66>
 8000936:	4915      	ldr	r1, [pc, #84]	; (800098c <HAL_UART_RxCpltCallback+0x88>)
 8000938:	4815      	ldr	r0, [pc, #84]	; (8000990 <HAL_UART_RxCpltCallback+0x8c>)
 800093a:	2364      	movs	r3, #100	; 0x64
 800093c:	2201      	movs	r2, #1
 800093e:	f001 fcca 	bl	80022d6 <HAL_UART_Transmit>
 8000942:	2364      	movs	r3, #100	; 0x64
 8000944:	2201      	movs	r2, #1
 8000946:	4911      	ldr	r1, [pc, #68]	; (800098c <HAL_UART_RxCpltCallback+0x88>)
 8000948:	4620      	mov	r0, r4
 800094a:	f001 fcc4 	bl	80022d6 <HAL_UART_Transmit>
 800094e:	4a11      	ldr	r2, [pc, #68]	; (8000994 <HAL_UART_RxCpltCallback+0x90>)
 8000950:	6813      	ldr	r3, [r2, #0]
 8000952:	3301      	adds	r3, #1
 8000954:	6013      	str	r3, [r2, #0]
 8000956:	e8bd 4010 	ldmia.w	sp!, {r4, lr}
 800095a:	4909      	ldr	r1, [pc, #36]	; (8000980 <HAL_UART_RxCpltCallback+0x7c>)
 800095c:	4807      	ldr	r0, [pc, #28]	; (800097c <HAL_UART_RxCpltCallback+0x78>)
 800095e:	2201      	movs	r2, #1
 8000960:	f001 bed1 	b.w	8002706 <HAL_UART_Receive_IT>
 8000964:	490c      	ldr	r1, [pc, #48]	; (8000998 <HAL_UART_RxCpltCallback+0x94>)
 8000966:	2364      	movs	r3, #100	; 0x64
 8000968:	2201      	movs	r2, #1
 800096a:	4809      	ldr	r0, [pc, #36]	; (8000990 <HAL_UART_RxCpltCallback+0x8c>)
 800096c:	f001 fcb3 	bl	80022d6 <HAL_UART_Transmit>
 8000970:	e7f1      	b.n	8000956 <HAL_UART_RxCpltCallback+0x52>
 8000972:	490a      	ldr	r1, [pc, #40]	; (800099c <HAL_UART_RxCpltCallback+0x98>)
 8000974:	2364      	movs	r3, #100	; 0x64
 8000976:	2201      	movs	r2, #1
 8000978:	e7f7      	b.n	800096a <HAL_UART_RxCpltCallback+0x66>
 800097a:	bd10      	pop	{r4, pc}
 800097c:	20000258 	.word	0x20000258
 8000980:	200002f8 	.word	0x200002f8
 8000984:	0800308e 	.word	0x0800308e
 8000988:	0800308c 	.word	0x0800308c
 800098c:	080030f0 	.word	0x080030f0
 8000990:	200002a0 	.word	0x200002a0
 8000994:	20000078 	.word	0x20000078
 8000998:	08003088 	.word	0x08003088
 800099c:	0800308a 	.word	0x0800308a

080009a0 <HAL_TIM_PeriodElapsedCallback>:
 80009a0:	e92d 47f0 	stmdb	sp!, {r4, r5, r6, r7, r8, r9, sl, lr}
 80009a4:	6802      	ldr	r2, [r0, #0]
 80009a6:	4b5b      	ldr	r3, [pc, #364]	; (8000b14 <HAL_TIM_PeriodElapsedCallback+0x174>)
 80009a8:	429a      	cmp	r2, r3
 80009aa:	b088      	sub	sp, #32
 80009ac:	f040 80ae 	bne.w	8000b0c <HAL_TIM_PeriodElapsedCallback+0x16c>
 80009b0:	4b59      	ldr	r3, [pc, #356]	; (8000b18 <HAL_TIM_PeriodElapsedCallback+0x178>)
 80009b2:	4a5a      	ldr	r2, [pc, #360]	; (8000b1c <HAL_TIM_PeriodElapsedCallback+0x17c>)
 80009b4:	681b      	ldr	r3, [r3, #0]
 80009b6:	4c5a      	ldr	r4, [pc, #360]	; (8000b20 <HAL_TIM_PeriodElapsedCallback+0x180>)
 80009b8:	6a5b      	ldr	r3, [r3, #36]	; 0x24
 80009ba:	495a      	ldr	r1, [pc, #360]	; (8000b24 <HAL_TIM_PeriodElapsedCallback+0x184>)
 80009bc:	485a      	ldr	r0, [pc, #360]	; (8000b28 <HAL_TIM_PeriodElapsedCallback+0x188>)
 80009be:	4e5b      	ldr	r6, [pc, #364]	; (8000b2c <HAL_TIM_PeriodElapsedCallback+0x18c>)
 80009c0:	ed9f 6a5b 	vldr	s12, [pc, #364]	; 8000b30 <HAL_TIM_PeriodElapsedCallback+0x190>
 80009c4:	ed9f 7a5b 	vldr	s14, [pc, #364]	; 8000b34 <HAL_TIM_PeriodElapsedCallback+0x194>
 80009c8:	4f5b      	ldr	r7, [pc, #364]	; (8000b38 <HAL_TIM_PeriodElapsedCallback+0x198>)
 80009ca:	f8df e190 	ldr.w	lr, [pc, #400]	; 8000b5c <HAL_TIM_PeriodElapsedCallback+0x1bc>
 80009ce:	f8df 9190 	ldr.w	r9, [pc, #400]	; 8000b60 <HAL_TIM_PeriodElapsedCallback+0x1c0>
 80009d2:	f8df a190 	ldr.w	sl, [pc, #400]	; 8000b64 <HAL_TIM_PeriodElapsedCallback+0x1c4>
 80009d6:	b21b      	sxth	r3, r3
 80009d8:	8013      	strh	r3, [r2, #0]
 80009da:	4b58      	ldr	r3, [pc, #352]	; (8000b3c <HAL_TIM_PeriodElapsedCallback+0x19c>)
 80009dc:	681b      	ldr	r3, [r3, #0]
 80009de:	6a5b      	ldr	r3, [r3, #36]	; 0x24
 80009e0:	b21b      	sxth	r3, r3
 80009e2:	8023      	strh	r3, [r4, #0]
 80009e4:	4b56      	ldr	r3, [pc, #344]	; (8000b40 <HAL_TIM_PeriodElapsedCallback+0x1a0>)
 80009e6:	681b      	ldr	r3, [r3, #0]
 80009e8:	6a5b      	ldr	r3, [r3, #36]	; 0x24
 80009ea:	b21b      	sxth	r3, r3
 80009ec:	800b      	strh	r3, [r1, #0]
 80009ee:	4b55      	ldr	r3, [pc, #340]	; (8000b44 <HAL_TIM_PeriodElapsedCallback+0x1a4>)
 80009f0:	681b      	ldr	r3, [r3, #0]
 80009f2:	6a5b      	ldr	r3, [r3, #36]	; 0x24
 80009f4:	b21b      	sxth	r3, r3
 80009f6:	8003      	strh	r3, [r0, #0]
 80009f8:	8823      	ldrh	r3, [r4, #0]
 80009fa:	8835      	ldrh	r5, [r6, #0]
 80009fc:	b21b      	sxth	r3, r3
 80009fe:	b22d      	sxth	r5, r5
 8000a00:	1b5b      	subs	r3, r3, r5
 8000a02:	ee07 3a90 	vmov	s15, r3
 8000a06:	eef8 7ae7 	vcvt.f32.s32	s15, s15
 8000a0a:	eef2 6a0e 	vmov.f32	s13, #46	; 0x41700000  15.0
 8000a0e:	ee67 7a86 	vmul.f32	s15, s15, s12
 8000a12:	4d4d      	ldr	r5, [pc, #308]	; (8000b48 <HAL_TIM_PeriodElapsedCallback+0x1a8>)
 8000a14:	ee67 7aa6 	vmul.f32	s15, s15, s13
 8000a18:	eec7 5a87 	vdiv.f32	s11, s15, s14
 8000a1c:	edc5 5a00 	vstr	s11, [r5]
 8000a20:	8803      	ldrh	r3, [r0, #0]
 8000a22:	f8b7 c000 	ldrh.w	ip, [r7]
 8000a26:	b21b      	sxth	r3, r3
 8000a28:	fa0f fc8c 	sxth.w	ip, ip
 8000a2c:	eba3 030c 	sub.w	r3, r3, ip
 8000a30:	ee07 3a90 	vmov	s15, r3
 8000a34:	eef8 7ae7 	vcvt.f32.s32	s15, s15
 8000a38:	f8df c12c 	ldr.w	ip, [pc, #300]	; 8000b68 <HAL_TIM_PeriodElapsedCallback+0x1c8>
 8000a3c:	ee67 7a86 	vmul.f32	s15, s15, s12
 8000a40:	ee67 7aa6 	vmul.f32	s15, s15, s13
 8000a44:	eec7 5a87 	vdiv.f32	s11, s15, s14
 8000a48:	edcc 5a00 	vstr	s11, [ip]
 8000a4c:	880b      	ldrh	r3, [r1, #0]
 8000a4e:	f8be 8000 	ldrh.w	r8, [lr]
 8000a52:	b21b      	sxth	r3, r3
 8000a54:	fa0f f888 	sxth.w	r8, r8
 8000a58:	eba3 0308 	sub.w	r3, r3, r8
 8000a5c:	ee07 3a90 	vmov	s15, r3
 8000a60:	eef8 7ae7 	vcvt.f32.s32	s15, s15
 8000a64:	ee67 7a86 	vmul.f32	s15, s15, s12
 8000a68:	ee67 7aa6 	vmul.f32	s15, s15, s13
 8000a6c:	eec7 5a87 	vdiv.f32	s11, s15, s14
 8000a70:	edc9 5a00 	vstr	s11, [r9]
 8000a74:	8813      	ldrh	r3, [r2, #0]
 8000a76:	f8ba 8000 	ldrh.w	r8, [sl]
 8000a7a:	b21b      	sxth	r3, r3
 8000a7c:	fa0f f888 	sxth.w	r8, r8
 8000a80:	eba3 0308 	sub.w	r3, r3, r8
 8000a84:	ee07 3a90 	vmov	s15, r3
 8000a88:	eef8 7ae7 	vcvt.f32.s32	s15, s15
 8000a8c:	4b2f      	ldr	r3, [pc, #188]	; (8000b4c <HAL_TIM_PeriodElapsedCallback+0x1ac>)
 8000a8e:	ee67 7a86 	vmul.f32	s15, s15, s12
 8000a92:	ee67 7aa6 	vmul.f32	s15, s15, s13
 8000a96:	eec7 6a87 	vdiv.f32	s13, s15, s14
 8000a9a:	edc3 6a00 	vstr	s13, [r3]
 8000a9e:	8824      	ldrh	r4, [r4, #0]
 8000aa0:	8034      	strh	r4, [r6, #0]
 8000aa2:	8800      	ldrh	r0, [r0, #0]
 8000aa4:	8038      	strh	r0, [r7, #0]
 8000aa6:	8809      	ldrh	r1, [r1, #0]
 8000aa8:	f8ae 1000 	strh.w	r1, [lr]
 8000aac:	8812      	ldrh	r2, [r2, #0]
 8000aae:	f8aa 2000 	strh.w	r2, [sl]
 8000ab2:	6828      	ldr	r0, [r5, #0]
 8000ab4:	f8dc 4000 	ldr.w	r4, [ip]
 8000ab8:	f8d9 5000 	ldr.w	r5, [r9]
 8000abc:	681e      	ldr	r6, [r3, #0]
 8000abe:	f7ff fd4b 	bl	8000558 <__aeabi_f2d>
 8000ac2:	4602      	mov	r2, r0
 8000ac4:	460b      	mov	r3, r1
 8000ac6:	4630      	mov	r0, r6
 8000ac8:	e9cd 2306 	strd	r2, r3, [sp, #24]
 8000acc:	f7ff fd44 	bl	8000558 <__aeabi_f2d>
 8000ad0:	e9cd 0104 	strd	r0, r1, [sp, #16]
 8000ad4:	4628      	mov	r0, r5
 8000ad6:	f7ff fd3f 	bl	8000558 <__aeabi_f2d>
 8000ada:	e9cd 0102 	strd	r0, r1, [sp, #8]
 8000ade:	4620      	mov	r0, r4
 8000ae0:	f7ff fd3a 	bl	8000558 <__aeabi_f2d>
 8000ae4:	e9dd 2306 	ldrd	r2, r3, [sp, #24]
 8000ae8:	e9cd 0100 	strd	r0, r1, [sp]
 8000aec:	4918      	ldr	r1, [pc, #96]	; (8000b50 <HAL_TIM_PeriodElapsedCallback+0x1b0>)
 8000aee:	4819      	ldr	r0, [pc, #100]	; (8000b54 <HAL_TIM_PeriodElapsedCallback+0x1b4>)
 8000af0:	f001 fe1a 	bl	8002728 <siprintf>
 8000af4:	4817      	ldr	r0, [pc, #92]	; (8000b54 <HAL_TIM_PeriodElapsedCallback+0x1b4>)
 8000af6:	f7ff fb73 	bl	80001e0 <strlen>
 8000afa:	4916      	ldr	r1, [pc, #88]	; (8000b54 <HAL_TIM_PeriodElapsedCallback+0x1b4>)
 8000afc:	b282      	uxth	r2, r0
 8000afe:	4816      	ldr	r0, [pc, #88]	; (8000b58 <HAL_TIM_PeriodElapsedCallback+0x1b8>)
 8000b00:	2364      	movs	r3, #100	; 0x64
 8000b02:	b008      	add	sp, #32
 8000b04:	e8bd 47f0 	ldmia.w	sp!, {r4, r5, r6, r7, r8, r9, sl, lr}
 8000b08:	f001 bbe5 	b.w	80022d6 <HAL_UART_Transmit>
 8000b0c:	b008      	add	sp, #32
 8000b0e:	e8bd 87f0 	ldmia.w	sp!, {r4, r5, r6, r7, r8, r9, sl, pc}
 8000b12:	bf00      	nop
 8000b14:	40000c00 	.word	0x40000c00
 8000b18:	200000f0 	.word	0x200000f0
 8000b1c:	20000082 	.word	0x20000082
 8000b20:	2000007c 	.word	0x2000007c
 8000b24:	20000080 	.word	0x20000080
 8000b28:	2000007e 	.word	0x2000007e
 8000b2c:	20000084 	.word	0x20000084
 8000b30:	42700000 	.word	0x42700000
 8000b34:	451f8000 	.word	0x451f8000
 8000b38:	20000086 	.word	0x20000086
 8000b3c:	20000138 	.word	0x20000138
 8000b40:	20000180 	.word	0x20000180
 8000b44:	200001c8 	.word	0x200001c8
 8000b48:	200002e8 	.word	0x200002e8
 8000b4c:	200002f4 	.word	0x200002f4
 8000b50:	08003090 	.word	0x08003090
 8000b54:	2000008c 	.word	0x2000008c
 8000b58:	20000258 	.word	0x20000258
 8000b5c:	20000088 	.word	0x20000088
 8000b60:	200002f0 	.word	0x200002f0
 8000b64:	2000008a 	.word	0x2000008a
 8000b68:	200002ec 	.word	0x200002ec

08000b6c <Error_Handler>:
 8000b6c:	b672      	cpsid	i
 8000b6e:	4b04      	ldr	r3, [pc, #16]	; (8000b80 <Error_Handler+0x14>)
 8000b70:	681b      	ldr	r3, [r3, #0]
 8000b72:	2100      	movs	r1, #0
 8000b74:	f44f 72fa 	mov.w	r2, #500	; 0x1f4
 8000b78:	63d9      	str	r1, [r3, #60]	; 0x3c
 8000b7a:	641a      	str	r2, [r3, #64]	; 0x40
 8000b7c:	e7fc      	b.n	8000b78 <Error_Handler+0xc>
 8000b7e:	bf00      	nop
 8000b80:	200000f0 	.word	0x200000f0

08000b84 <SystemClock_Config>:
 8000b84:	b500      	push	{lr}
 8000b86:	b095      	sub	sp, #84	; 0x54
 8000b88:	222c      	movs	r2, #44	; 0x2c
 8000b8a:	2100      	movs	r1, #0
 8000b8c:	a809      	add	r0, sp, #36	; 0x24
 8000b8e:	f001 fdeb 	bl	8002768 <memset>
 8000b92:	2214      	movs	r2, #20
 8000b94:	2100      	movs	r1, #0
 8000b96:	a803      	add	r0, sp, #12
 8000b98:	f001 fde6 	bl	8002768 <memset>
 8000b9c:	2300      	movs	r3, #0
 8000b9e:	4a19      	ldr	r2, [pc, #100]	; (8000c04 <SystemClock_Config+0x80>)
 8000ba0:	9301      	str	r3, [sp, #4]
 8000ba2:	6c11      	ldr	r1, [r2, #64]	; 0x40
 8000ba4:	f041 5180 	orr.w	r1, r1, #268435456	; 0x10000000
 8000ba8:	6411      	str	r1, [r2, #64]	; 0x40
 8000baa:	6c12      	ldr	r2, [r2, #64]	; 0x40
 8000bac:	f002 5280 	and.w	r2, r2, #268435456	; 0x10000000
 8000bb0:	9201      	str	r2, [sp, #4]
 8000bb2:	9a01      	ldr	r2, [sp, #4]
 8000bb4:	4a14      	ldr	r2, [pc, #80]	; (8000c08 <SystemClock_Config+0x84>)
 8000bb6:	9302      	str	r3, [sp, #8]
 8000bb8:	6811      	ldr	r1, [r2, #0]
 8000bba:	f441 4140 	orr.w	r1, r1, #49152	; 0xc000
 8000bbe:	6011      	str	r1, [r2, #0]
 8000bc0:	6812      	ldr	r2, [r2, #0]
 8000bc2:	930e      	str	r3, [sp, #56]	; 0x38
 8000bc4:	f402 4240 	and.w	r2, r2, #49152	; 0xc000
 8000bc8:	9202      	str	r2, [sp, #8]
 8000bca:	9a02      	ldr	r2, [sp, #8]
 8000bcc:	2202      	movs	r2, #2
 8000bce:	9208      	str	r2, [sp, #32]
 8000bd0:	2001      	movs	r0, #1
 8000bd2:	2210      	movs	r2, #16
 8000bd4:	e9cd 020b 	strd	r0, r2, [sp, #44]	; 0x2c
 8000bd8:	a808      	add	r0, sp, #32
 8000bda:	f000 fd27 	bl	800162c <HAL_RCC_OscConfig>
 8000bde:	4601      	mov	r1, r0
 8000be0:	b108      	cbz	r0, 8000be6 <SystemClock_Config+0x62>
 8000be2:	f7ff ffc3 	bl	8000b6c <Error_Handler>
 8000be6:	230f      	movs	r3, #15
 8000be8:	e9cd 3003 	strd	r3, r0, [sp, #12]
 8000bec:	e9cd 0005 	strd	r0, r0, [sp, #20]
 8000bf0:	9007      	str	r0, [sp, #28]
 8000bf2:	a803      	add	r0, sp, #12
 8000bf4:	f000 fef4 	bl	80019e0 <HAL_RCC_ClockConfig>
 8000bf8:	2800      	cmp	r0, #0
 8000bfa:	d1f2      	bne.n	8000be2 <SystemClock_Config+0x5e>
 8000bfc:	b015      	add	sp, #84	; 0x54
 8000bfe:	f85d fb04 	ldr.w	pc, [sp], #4
 8000c02:	bf00      	nop
 8000c04:	40023800 	.word	0x40023800
 8000c08:	40007000 	.word	0x40007000

08000c0c <main>:
 8000c0c:	b580      	push	{r7, lr}
 8000c0e:	b0b8      	sub	sp, #224	; 0xe0
 8000c10:	f000 fb5a 	bl	80012c8 <HAL_Init>
 8000c14:	f7ff ffb6 	bl	8000b84 <SystemClock_Config>
 8000c18:	2214      	movs	r2, #20
 8000c1a:	2100      	movs	r1, #0
 8000c1c:	a82f      	add	r0, sp, #188	; 0xbc
 8000c1e:	f001 fda3 	bl	8002768 <memset>
 8000c22:	2400      	movs	r4, #0
 8000c24:	4bae      	ldr	r3, [pc, #696]	; (8000ee0 <main+0x2d4>)
 8000c26:	9400      	str	r4, [sp, #0]
 8000c28:	6b1a      	ldr	r2, [r3, #48]	; 0x30
 8000c2a:	48ae      	ldr	r0, [pc, #696]	; (8000ee4 <main+0x2d8>)
 8000c2c:	f8df 82dc 	ldr.w	r8, [pc, #732]	; 8000f0c <main+0x300>
 8000c30:	f042 0280 	orr.w	r2, r2, #128	; 0x80
 8000c34:	631a      	str	r2, [r3, #48]	; 0x30
 8000c36:	6b1a      	ldr	r2, [r3, #48]	; 0x30
 8000c38:	f002 0280 	and.w	r2, r2, #128	; 0x80
 8000c3c:	9200      	str	r2, [sp, #0]
 8000c3e:	9a00      	ldr	r2, [sp, #0]
 8000c40:	9401      	str	r4, [sp, #4]
 8000c42:	6b1a      	ldr	r2, [r3, #48]	; 0x30
 8000c44:	f042 0201 	orr.w	r2, r2, #1
 8000c48:	631a      	str	r2, [r3, #48]	; 0x30
 8000c4a:	6b1a      	ldr	r2, [r3, #48]	; 0x30
 8000c4c:	f002 0201 	and.w	r2, r2, #1
 8000c50:	9201      	str	r2, [sp, #4]
 8000c52:	9a01      	ldr	r2, [sp, #4]
 8000c54:	9402      	str	r4, [sp, #8]
 8000c56:	6b1a      	ldr	r2, [r3, #48]	; 0x30
 8000c58:	f042 0210 	orr.w	r2, r2, #16
 8000c5c:	631a      	str	r2, [r3, #48]	; 0x30
 8000c5e:	6b1a      	ldr	r2, [r3, #48]	; 0x30
 8000c60:	f002 0210 	and.w	r2, r2, #16
 8000c64:	9202      	str	r2, [sp, #8]
 8000c66:	9a02      	ldr	r2, [sp, #8]
 8000c68:	9403      	str	r4, [sp, #12]
 8000c6a:	6b1a      	ldr	r2, [r3, #48]	; 0x30
 8000c6c:	f042 0204 	orr.w	r2, r2, #4
 8000c70:	631a      	str	r2, [r3, #48]	; 0x30
 8000c72:	6b1a      	ldr	r2, [r3, #48]	; 0x30
 8000c74:	f002 0204 	and.w	r2, r2, #4
 8000c78:	9203      	str	r2, [sp, #12]
 8000c7a:	9a03      	ldr	r2, [sp, #12]
 8000c7c:	9404      	str	r4, [sp, #16]
 8000c7e:	6b1a      	ldr	r2, [r3, #48]	; 0x30
 8000c80:	f042 0208 	orr.w	r2, r2, #8
 8000c84:	631a      	str	r2, [r3, #48]	; 0x30
 8000c86:	6b1a      	ldr	r2, [r3, #48]	; 0x30
 8000c88:	f002 0208 	and.w	r2, r2, #8
 8000c8c:	9204      	str	r2, [sp, #16]
 8000c8e:	9a04      	ldr	r2, [sp, #16]
 8000c90:	9405      	str	r4, [sp, #20]
 8000c92:	6b1a      	ldr	r2, [r3, #48]	; 0x30
 8000c94:	f042 0202 	orr.w	r2, r2, #2
 8000c98:	631a      	str	r2, [r3, #48]	; 0x30
 8000c9a:	6b1b      	ldr	r3, [r3, #48]	; 0x30
 8000c9c:	f003 0302 	and.w	r3, r3, #2
 8000ca0:	4622      	mov	r2, r4
 8000ca2:	9305      	str	r3, [sp, #20]
 8000ca4:	2110      	movs	r1, #16
 8000ca6:	2501      	movs	r5, #1
 8000ca8:	9b05      	ldr	r3, [sp, #20]
 8000caa:	f000 fcb9 	bl	8001620 <HAL_GPIO_WritePin>
 8000cae:	2310      	movs	r3, #16
 8000cb0:	488c      	ldr	r0, [pc, #560]	; (8000ee4 <main+0x2d8>)
 8000cb2:	a92f      	add	r1, sp, #188	; 0xbc
 8000cb4:	e9cd 352f 	strd	r3, r5, [sp, #188]	; 0xbc
 8000cb8:	e9cd 4431 	strd	r4, r4, [sp, #196]	; 0xc4
 8000cbc:	f000 fbe8 	bl	8001490 <HAL_GPIO_Init>
 8000cc0:	4621      	mov	r1, r4
 8000cc2:	2220      	movs	r2, #32
 8000cc4:	a830      	add	r0, sp, #192	; 0xc0
 8000cc6:	f001 fd4f 	bl	8002768 <memset>
 8000cca:	4b87      	ldr	r3, [pc, #540]	; (8000ee8 <main+0x2dc>)
 8000ccc:	f8c8 4008 	str.w	r4, [r8, #8]
 8000cd0:	f64f 77ff 	movw	r7, #65535	; 0xffff
 8000cd4:	2603      	movs	r6, #3
 8000cd6:	a92f      	add	r1, sp, #188	; 0xbc
 8000cd8:	4640      	mov	r0, r8
 8000cda:	e9cd 440e 	strd	r4, r4, [sp, #56]	; 0x38
 8000cde:	e9c8 3400 	strd	r3, r4, [r8]
 8000ce2:	e9c8 7403 	strd	r7, r4, [r8, #12]
 8000ce6:	e9c8 4405 	strd	r4, r4, [r8, #20]
 8000cea:	962f      	str	r6, [sp, #188]	; 0xbc
 8000cec:	9531      	str	r5, [sp, #196]	; 0xc4
 8000cee:	9535      	str	r5, [sp, #212]	; 0xd4
 8000cf0:	f001 f8d4 	bl	8001e9c <HAL_TIM_Encoder_Init>
 8000cf4:	b108      	cbz	r0, 8000cfa <main+0xee>
 8000cf6:	f7ff ff39 	bl	8000b6c <Error_Handler>
 8000cfa:	e9cd 000e 	strd	r0, r0, [sp, #56]	; 0x38
 8000cfe:	a90e      	add	r1, sp, #56	; 0x38
 8000d00:	4640      	mov	r0, r8
 8000d02:	f001 f9c3 	bl	800208c <HAL_TIMEx_MasterConfigSynchronization>
 8000d06:	2800      	cmp	r0, #0
 8000d08:	d1f5      	bne.n	8000cf6 <main+0xea>
 8000d0a:	4b78      	ldr	r3, [pc, #480]	; (8000eec <main+0x2e0>)
 8000d0c:	4a78      	ldr	r2, [pc, #480]	; (8000ef0 <main+0x2e4>)
 8000d0e:	6118      	str	r0, [r3, #16]
 8000d10:	f04f 080c 	mov.w	r8, #12
 8000d14:	e9c3 0002 	strd	r0, r0, [r3, #8]
 8000d18:	e9c3 8005 	strd	r8, r0, [r3, #20]
 8000d1c:	61d8      	str	r0, [r3, #28]
 8000d1e:	f44f 5916 	mov.w	r9, #9600	; 0x2580
 8000d22:	4618      	mov	r0, r3
 8000d24:	e9c3 2900 	strd	r2, r9, [r3]
 8000d28:	f001 faa6 	bl	8002278 <HAL_UART_Init>
 8000d2c:	4604      	mov	r4, r0
 8000d2e:	2800      	cmp	r0, #0
 8000d30:	d1e1      	bne.n	8000cf6 <main+0xea>
 8000d32:	f8df a1dc 	ldr.w	sl, [pc, #476]	; 8000f10 <main+0x304>
 8000d36:	4601      	mov	r1, r0
 8000d38:	2220      	movs	r2, #32
 8000d3a:	a827      	add	r0, sp, #156	; 0x9c
 8000d3c:	f001 fd14 	bl	8002768 <memset>
 8000d40:	f04f 4380 	mov.w	r3, #1073741824	; 0x40000000
 8000d44:	a926      	add	r1, sp, #152	; 0x98
 8000d46:	4650      	mov	r0, sl
 8000d48:	e9cd 440c 	strd	r4, r4, [sp, #48]	; 0x30
 8000d4c:	e9ca 3400 	strd	r3, r4, [sl]
 8000d50:	e9ca 4702 	strd	r4, r7, [sl, #8]
 8000d54:	f8ca 4010 	str.w	r4, [sl, #16]
 8000d58:	f8ca 4018 	str.w	r4, [sl, #24]
 8000d5c:	9626      	str	r6, [sp, #152]	; 0x98
 8000d5e:	9528      	str	r5, [sp, #160]	; 0xa0
 8000d60:	952c      	str	r5, [sp, #176]	; 0xb0
 8000d62:	f001 f89b 	bl	8001e9c <HAL_TIM_Encoder_Init>
 8000d66:	2800      	cmp	r0, #0
 8000d68:	d1c5      	bne.n	8000cf6 <main+0xea>
 8000d6a:	e9cd 000c 	strd	r0, r0, [sp, #48]	; 0x30
 8000d6e:	a90c      	add	r1, sp, #48	; 0x30
 8000d70:	4650      	mov	r0, sl
 8000d72:	f001 f98b 	bl	800208c <HAL_TIMEx_MasterConfigSynchronization>
 8000d76:	4604      	mov	r4, r0
 8000d78:	2800      	cmp	r0, #0
 8000d7a:	d1bc      	bne.n	8000cf6 <main+0xea>
 8000d7c:	f8df a194 	ldr.w	sl, [pc, #404]	; 8000f14 <main+0x308>
 8000d80:	4601      	mov	r1, r0
 8000d82:	2220      	movs	r2, #32
 8000d84:	a81e      	add	r0, sp, #120	; 0x78
 8000d86:	f001 fcef 	bl	8002768 <memset>
 8000d8a:	4b5a      	ldr	r3, [pc, #360]	; (8000ef4 <main+0x2e8>)
 8000d8c:	f8ca 4010 	str.w	r4, [sl, #16]
 8000d90:	a91d      	add	r1, sp, #116	; 0x74
 8000d92:	4650      	mov	r0, sl
 8000d94:	e9cd 440a 	strd	r4, r4, [sp, #40]	; 0x28
 8000d98:	e9ca 3400 	strd	r3, r4, [sl]
 8000d9c:	e9ca 4702 	strd	r4, r7, [sl, #8]
 8000da0:	f8ca 4018 	str.w	r4, [sl, #24]
 8000da4:	961d      	str	r6, [sp, #116]	; 0x74
 8000da6:	951f      	str	r5, [sp, #124]	; 0x7c
 8000da8:	9523      	str	r5, [sp, #140]	; 0x8c
 8000daa:	f001 f877 	bl	8001e9c <HAL_TIM_Encoder_Init>
 8000dae:	2800      	cmp	r0, #0
 8000db0:	d1a1      	bne.n	8000cf6 <main+0xea>
 8000db2:	e9cd 000a 	strd	r0, r0, [sp, #40]	; 0x28
 8000db6:	a90a      	add	r1, sp, #40	; 0x28
 8000db8:	4650      	mov	r0, sl
 8000dba:	f001 f967 	bl	800208c <HAL_TIMEx_MasterConfigSynchronization>
 8000dbe:	4604      	mov	r4, r0
 8000dc0:	2800      	cmp	r0, #0
 8000dc2:	d198      	bne.n	8000cf6 <main+0xea>
 8000dc4:	f8df a158 	ldr.w	sl, [pc, #344]	; 8000f20 <main+0x314>
 8000dc8:	4601      	mov	r1, r0
 8000dca:	2220      	movs	r2, #32
 8000dcc:	a815      	add	r0, sp, #84	; 0x54
 8000dce:	f001 fccb 	bl	8002768 <memset>
 8000dd2:	4b49      	ldr	r3, [pc, #292]	; (8000ef8 <main+0x2ec>)
 8000dd4:	f8ca 4010 	str.w	r4, [sl, #16]
 8000dd8:	a914      	add	r1, sp, #80	; 0x50
 8000dda:	4650      	mov	r0, sl
 8000ddc:	e9cd 4408 	strd	r4, r4, [sp, #32]
 8000de0:	e9ca 3400 	strd	r3, r4, [sl]
 8000de4:	e9ca 4702 	strd	r4, r7, [sl, #8]
 8000de8:	f8ca 4018 	str.w	r4, [sl, #24]
 8000dec:	9614      	str	r6, [sp, #80]	; 0x50
 8000dee:	9516      	str	r5, [sp, #88]	; 0x58
 8000df0:	951a      	str	r5, [sp, #104]	; 0x68
 8000df2:	f001 f853 	bl	8001e9c <HAL_TIM_Encoder_Init>
 8000df6:	2800      	cmp	r0, #0
 8000df8:	f47f af7d 	bne.w	8000cf6 <main+0xea>
 8000dfc:	e9cd 0008 	strd	r0, r0, [sp, #32]
 8000e00:	a908      	add	r1, sp, #32
 8000e02:	4650      	mov	r0, sl
 8000e04:	f001 f942 	bl	800208c <HAL_TIMEx_MasterConfigSynchronization>
 8000e08:	2800      	cmp	r0, #0
 8000e0a:	f47f af74 	bne.w	8000cf6 <main+0xea>
 8000e0e:	4b3b      	ldr	r3, [pc, #236]	; (8000efc <main+0x2f0>)
 8000e10:	4a3b      	ldr	r2, [pc, #236]	; (8000f00 <main+0x2f4>)
 8000e12:	e9c3 0002 	strd	r0, r0, [r3, #8]
 8000e16:	e9c3 0804 	strd	r0, r8, [r3, #16]
 8000e1a:	e9c3 0006 	strd	r0, r0, [r3, #24]
 8000e1e:	4618      	mov	r0, r3
 8000e20:	e9c3 2900 	strd	r2, r9, [r3]
 8000e24:	f001 fa28 	bl	8002278 <HAL_UART_Init>
 8000e28:	2800      	cmp	r0, #0
 8000e2a:	f47f af64 	bne.w	8000cf6 <main+0xea>
 8000e2e:	2210      	movs	r2, #16
 8000e30:	2100      	movs	r1, #0
 8000e32:	a810      	add	r0, sp, #64	; 0x40
 8000e34:	f001 fc98 	bl	8002768 <memset>
 8000e38:	4c32      	ldr	r4, [pc, #200]	; (8000f04 <main+0x2f8>)
 8000e3a:	4933      	ldr	r1, [pc, #204]	; (8000f08 <main+0x2fc>)
 8000e3c:	229f      	movs	r2, #159	; 0x9f
 8000e3e:	2300      	movs	r3, #0
 8000e40:	e9c4 1200 	strd	r1, r2, [r4]
 8000e44:	4620      	mov	r0, r4
 8000e46:	f242 720f 	movw	r2, #9999	; 0x270f
 8000e4a:	e9cd 3306 	strd	r3, r3, [sp, #24]
 8000e4e:	e9c4 2303 	strd	r2, r3, [r4, #12]
 8000e52:	60a3      	str	r3, [r4, #8]
 8000e54:	61a3      	str	r3, [r4, #24]
 8000e56:	f000 fff5 	bl	8001e44 <HAL_TIM_Base_Init>
 8000e5a:	2800      	cmp	r0, #0
 8000e5c:	f47f af4b 	bne.w	8000cf6 <main+0xea>
 8000e60:	f44f 5380 	mov.w	r3, #4096	; 0x1000
 8000e64:	a910      	add	r1, sp, #64	; 0x40
 8000e66:	4620      	mov	r0, r4
 8000e68:	9310      	str	r3, [sp, #64]	; 0x40
 8000e6a:	f001 f875 	bl	8001f58 <HAL_TIM_ConfigClockSource>
 8000e6e:	2800      	cmp	r0, #0
 8000e70:	f47f af41 	bne.w	8000cf6 <main+0xea>
 8000e74:	e9cd 0006 	strd	r0, r0, [sp, #24]
 8000e78:	a906      	add	r1, sp, #24
 8000e7a:	4620      	mov	r0, r4
 8000e7c:	f001 f906 	bl	800208c <HAL_TIMEx_MasterConfigSynchronization>
 8000e80:	4605      	mov	r5, r0
 8000e82:	2800      	cmp	r0, #0
 8000e84:	f47f af37 	bne.w	8000cf6 <main+0xea>
 8000e88:	4601      	mov	r1, r0
 8000e8a:	4820      	ldr	r0, [pc, #128]	; (8000f0c <main+0x300>)
 8000e8c:	f000 fe94 	bl	8001bb8 <HAL_TIM_Encoder_Start>
 8000e90:	2104      	movs	r1, #4
 8000e92:	481e      	ldr	r0, [pc, #120]	; (8000f0c <main+0x300>)
 8000e94:	f000 fe90 	bl	8001bb8 <HAL_TIM_Encoder_Start>
 8000e98:	4629      	mov	r1, r5
 8000e9a:	481d      	ldr	r0, [pc, #116]	; (8000f10 <main+0x304>)
 8000e9c:	f000 fe8c 	bl	8001bb8 <HAL_TIM_Encoder_Start>
 8000ea0:	2104      	movs	r1, #4
 8000ea2:	481b      	ldr	r0, [pc, #108]	; (8000f10 <main+0x304>)
 8000ea4:	f000 fe88 	bl	8001bb8 <HAL_TIM_Encoder_Start>
 8000ea8:	4629      	mov	r1, r5
 8000eaa:	481a      	ldr	r0, [pc, #104]	; (8000f14 <main+0x308>)
 8000eac:	f000 fe84 	bl	8001bb8 <HAL_TIM_Encoder_Start>
 8000eb0:	2104      	movs	r1, #4
 8000eb2:	4818      	ldr	r0, [pc, #96]	; (8000f14 <main+0x308>)
 8000eb4:	f000 fe80 	bl	8001bb8 <HAL_TIM_Encoder_Start>
 8000eb8:	4629      	mov	r1, r5
 8000eba:	4650      	mov	r0, sl
 8000ebc:	f000 fe7c 	bl	8001bb8 <HAL_TIM_Encoder_Start>
 8000ec0:	2104      	movs	r1, #4
 8000ec2:	4650      	mov	r0, sl
 8000ec4:	f000 fe78 	bl	8001bb8 <HAL_TIM_Encoder_Start>
 8000ec8:	4b13      	ldr	r3, [pc, #76]	; (8000f18 <main+0x30c>)
 8000eca:	4914      	ldr	r1, [pc, #80]	; (8000f1c <main+0x310>)
 8000ecc:	4807      	ldr	r0, [pc, #28]	; (8000eec <main+0x2e0>)
 8000ece:	601d      	str	r5, [r3, #0]
 8000ed0:	2201      	movs	r2, #1
 8000ed2:	f001 fc18 	bl	8002706 <HAL_UART_Receive_IT>
 8000ed6:	4620      	mov	r0, r4
 8000ed8:	f000 fe3c 	bl	8001b54 <HAL_TIM_Base_Start_IT>
 8000edc:	e7fe      	b.n	8000edc <main+0x2d0>
 8000ede:	bf00      	nop
 8000ee0:	40023800 	.word	0x40023800
 8000ee4:	40020000 	.word	0x40020000
 8000ee8:	40010000 	.word	0x40010000
 8000eec:	20000258 	.word	0x20000258
 8000ef0:	40004400 	.word	0x40004400
 8000ef4:	40000400 	.word	0x40000400
 8000ef8:	40000800 	.word	0x40000800
 8000efc:	200002a0 	.word	0x200002a0
 8000f00:	40011400 	.word	0x40011400
 8000f04:	20000210 	.word	0x20000210
 8000f08:	40000c00 	.word	0x40000c00
 8000f0c:	200000f0 	.word	0x200000f0
 8000f10:	20000138 	.word	0x20000138
 8000f14:	20000180 	.word	0x20000180
 8000f18:	20000078 	.word	0x20000078
 8000f1c:	200002f8 	.word	0x200002f8
 8000f20:	200001c8 	.word	0x200001c8

08000f24 <HAL_MspInit>:
 8000f24:	b082      	sub	sp, #8
 8000f26:	4b0c      	ldr	r3, [pc, #48]	; (8000f58 <HAL_MspInit+0x34>)
 8000f28:	2100      	movs	r1, #0
 8000f2a:	9100      	str	r1, [sp, #0]
 8000f2c:	6c5a      	ldr	r2, [r3, #68]	; 0x44
 8000f2e:	f442 4280 	orr.w	r2, r2, #16384	; 0x4000
 8000f32:	645a      	str	r2, [r3, #68]	; 0x44
 8000f34:	6c5a      	ldr	r2, [r3, #68]	; 0x44
 8000f36:	f402 4280 	and.w	r2, r2, #16384	; 0x4000
 8000f3a:	9200      	str	r2, [sp, #0]
 8000f3c:	9a00      	ldr	r2, [sp, #0]
 8000f3e:	9101      	str	r1, [sp, #4]
 8000f40:	6c1a      	ldr	r2, [r3, #64]	; 0x40
 8000f42:	f042 5280 	orr.w	r2, r2, #268435456	; 0x10000000
 8000f46:	641a      	str	r2, [r3, #64]	; 0x40
 8000f48:	6c1b      	ldr	r3, [r3, #64]	; 0x40
 8000f4a:	f003 5380 	and.w	r3, r3, #268435456	; 0x10000000
 8000f4e:	9301      	str	r3, [sp, #4]
 8000f50:	9b01      	ldr	r3, [sp, #4]
 8000f52:	b002      	add	sp, #8
 8000f54:	4770      	bx	lr
 8000f56:	bf00      	nop
 8000f58:	40023800 	.word	0x40023800

08000f5c <HAL_TIM_Encoder_MspInit>:
 8000f5c:	b510      	push	{r4, lr}
 8000f5e:	4604      	mov	r4, r0
 8000f60:	b08e      	sub	sp, #56	; 0x38
 8000f62:	2214      	movs	r2, #20
 8000f64:	2100      	movs	r1, #0
 8000f66:	a809      	add	r0, sp, #36	; 0x24
 8000f68:	f001 fbfe 	bl	8002768 <memset>
 8000f6c:	6823      	ldr	r3, [r4, #0]
 8000f6e:	4a42      	ldr	r2, [pc, #264]	; (8001078 <HAL_TIM_Encoder_MspInit+0x11c>)
 8000f70:	4293      	cmp	r3, r2
 8000f72:	d122      	bne.n	8000fba <HAL_TIM_Encoder_MspInit+0x5e>
 8000f74:	4b41      	ldr	r3, [pc, #260]	; (800107c <HAL_TIM_Encoder_MspInit+0x120>)
 8000f76:	4842      	ldr	r0, [pc, #264]	; (8001080 <HAL_TIM_Encoder_MspInit+0x124>)
 8000f78:	2100      	movs	r1, #0
 8000f7a:	9101      	str	r1, [sp, #4]
 8000f7c:	6c5a      	ldr	r2, [r3, #68]	; 0x44
 8000f7e:	f042 0201 	orr.w	r2, r2, #1
 8000f82:	645a      	str	r2, [r3, #68]	; 0x44
 8000f84:	6c5a      	ldr	r2, [r3, #68]	; 0x44
 8000f86:	f002 0201 	and.w	r2, r2, #1
 8000f8a:	9201      	str	r2, [sp, #4]
 8000f8c:	9a01      	ldr	r2, [sp, #4]
 8000f8e:	9102      	str	r1, [sp, #8]
 8000f90:	6b1a      	ldr	r2, [r3, #48]	; 0x30
 8000f92:	f042 0210 	orr.w	r2, r2, #16
 8000f96:	631a      	str	r2, [r3, #48]	; 0x30
 8000f98:	6b1b      	ldr	r3, [r3, #48]	; 0x30
 8000f9a:	f003 0310 	and.w	r3, r3, #16
 8000f9e:	9302      	str	r3, [sp, #8]
 8000fa0:	f44f 6120 	mov.w	r1, #2560	; 0xa00
 8000fa4:	9b02      	ldr	r3, [sp, #8]
 8000fa6:	2302      	movs	r3, #2
 8000fa8:	e9cd 1309 	strd	r1, r3, [sp, #36]	; 0x24
 8000fac:	2301      	movs	r3, #1
 8000fae:	930d      	str	r3, [sp, #52]	; 0x34
 8000fb0:	a909      	add	r1, sp, #36	; 0x24
 8000fb2:	f000 fa6d 	bl	8001490 <HAL_GPIO_Init>
 8000fb6:	b00e      	add	sp, #56	; 0x38
 8000fb8:	bd10      	pop	{r4, pc}
 8000fba:	f1b3 4f80 	cmp.w	r3, #1073741824	; 0x40000000
 8000fbe:	d11f      	bne.n	8001000 <HAL_TIM_Encoder_MspInit+0xa4>
 8000fc0:	f503 330e 	add.w	r3, r3, #145408	; 0x23800
 8000fc4:	2100      	movs	r1, #0
 8000fc6:	9103      	str	r1, [sp, #12]
 8000fc8:	6c1a      	ldr	r2, [r3, #64]	; 0x40
 8000fca:	482e      	ldr	r0, [pc, #184]	; (8001084 <HAL_TIM_Encoder_MspInit+0x128>)
 8000fcc:	f042 0201 	orr.w	r2, r2, #1
 8000fd0:	641a      	str	r2, [r3, #64]	; 0x40
 8000fd2:	6c1a      	ldr	r2, [r3, #64]	; 0x40
 8000fd4:	f002 0201 	and.w	r2, r2, #1
 8000fd8:	9203      	str	r2, [sp, #12]
 8000fda:	9a03      	ldr	r2, [sp, #12]
 8000fdc:	9104      	str	r1, [sp, #16]
 8000fde:	6b1a      	ldr	r2, [r3, #48]	; 0x30
 8000fe0:	f042 0201 	orr.w	r2, r2, #1
 8000fe4:	631a      	str	r2, [r3, #48]	; 0x30
 8000fe6:	6b1b      	ldr	r3, [r3, #48]	; 0x30
 8000fe8:	f003 0301 	and.w	r3, r3, #1
 8000fec:	9304      	str	r3, [sp, #16]
 8000fee:	9b04      	ldr	r3, [sp, #16]
 8000ff0:	2222      	movs	r2, #34	; 0x22
 8000ff2:	2302      	movs	r3, #2
 8000ff4:	e9cd 2309 	strd	r2, r3, [sp, #36]	; 0x24
 8000ff8:	2301      	movs	r3, #1
 8000ffa:	930d      	str	r3, [sp, #52]	; 0x34
 8000ffc:	a909      	add	r1, sp, #36	; 0x24
 8000ffe:	e7d8      	b.n	8000fb2 <HAL_TIM_Encoder_MspInit+0x56>
 8001000:	4a21      	ldr	r2, [pc, #132]	; (8001088 <HAL_TIM_Encoder_MspInit+0x12c>)
 8001002:	4293      	cmp	r3, r2
 8001004:	d11d      	bne.n	8001042 <HAL_TIM_Encoder_MspInit+0xe6>
 8001006:	4b1d      	ldr	r3, [pc, #116]	; (800107c <HAL_TIM_Encoder_MspInit+0x120>)
 8001008:	2100      	movs	r1, #0
 800100a:	9105      	str	r1, [sp, #20]
 800100c:	6c1a      	ldr	r2, [r3, #64]	; 0x40
 800100e:	f042 0202 	orr.w	r2, r2, #2
 8001012:	641a      	str	r2, [r3, #64]	; 0x40
 8001014:	6c1a      	ldr	r2, [r3, #64]	; 0x40
 8001016:	f002 0202 	and.w	r2, r2, #2
 800101a:	9205      	str	r2, [sp, #20]
 800101c:	9a05      	ldr	r2, [sp, #20]
 800101e:	9106      	str	r1, [sp, #24]
 8001020:	6b1a      	ldr	r2, [r3, #48]	; 0x30
 8001022:	f042 0202 	orr.w	r2, r2, #2
 8001026:	631a      	str	r2, [r3, #48]	; 0x30
 8001028:	6b1b      	ldr	r3, [r3, #48]	; 0x30
 800102a:	f003 0302 	and.w	r3, r3, #2
 800102e:	9306      	str	r3, [sp, #24]
 8001030:	9b06      	ldr	r3, [sp, #24]
 8001032:	2330      	movs	r3, #48	; 0x30
 8001034:	9309      	str	r3, [sp, #36]	; 0x24
 8001036:	2302      	movs	r3, #2
 8001038:	4814      	ldr	r0, [pc, #80]	; (800108c <HAL_TIM_Encoder_MspInit+0x130>)
 800103a:	930a      	str	r3, [sp, #40]	; 0x28
 800103c:	930d      	str	r3, [sp, #52]	; 0x34
 800103e:	a909      	add	r1, sp, #36	; 0x24
 8001040:	e7b7      	b.n	8000fb2 <HAL_TIM_Encoder_MspInit+0x56>
 8001042:	4a13      	ldr	r2, [pc, #76]	; (8001090 <HAL_TIM_Encoder_MspInit+0x134>)
 8001044:	4293      	cmp	r3, r2
 8001046:	d1b6      	bne.n	8000fb6 <HAL_TIM_Encoder_MspInit+0x5a>
 8001048:	4b0c      	ldr	r3, [pc, #48]	; (800107c <HAL_TIM_Encoder_MspInit+0x120>)
 800104a:	2100      	movs	r1, #0
 800104c:	9107      	str	r1, [sp, #28]
 800104e:	6c1a      	ldr	r2, [r3, #64]	; 0x40
 8001050:	f042 0204 	orr.w	r2, r2, #4
 8001054:	641a      	str	r2, [r3, #64]	; 0x40
 8001056:	6c1a      	ldr	r2, [r3, #64]	; 0x40
 8001058:	f002 0204 	and.w	r2, r2, #4
 800105c:	9207      	str	r2, [sp, #28]
 800105e:	9a07      	ldr	r2, [sp, #28]
 8001060:	9108      	str	r1, [sp, #32]
 8001062:	6b1a      	ldr	r2, [r3, #48]	; 0x30
 8001064:	f042 0202 	orr.w	r2, r2, #2
 8001068:	631a      	str	r2, [r3, #48]	; 0x30
 800106a:	6b1b      	ldr	r3, [r3, #48]	; 0x30
 800106c:	f003 0302 	and.w	r3, r3, #2
 8001070:	9308      	str	r3, [sp, #32]
 8001072:	9b08      	ldr	r3, [sp, #32]
 8001074:	23c0      	movs	r3, #192	; 0xc0
 8001076:	e7dd      	b.n	8001034 <HAL_TIM_Encoder_MspInit+0xd8>
 8001078:	40010000 	.word	0x40010000
 800107c:	40023800 	.word	0x40023800
 8001080:	40021000 	.word	0x40021000
 8001084:	40020000 	.word	0x40020000
 8001088:	40000400 	.word	0x40000400
 800108c:	40020400 	.word	0x40020400
 8001090:	40000800 	.word	0x40000800

08001094 <HAL_TIM_Base_MspInit>:
 8001094:	b507      	push	{r0, r1, r2, lr}
 8001096:	4b0f      	ldr	r3, [pc, #60]	; (80010d4 <HAL_TIM_Base_MspInit+0x40>)
 8001098:	6802      	ldr	r2, [r0, #0]
 800109a:	429a      	cmp	r2, r3
 800109c:	d116      	bne.n	80010cc <HAL_TIM_Base_MspInit+0x38>
 800109e:	2200      	movs	r2, #0
 80010a0:	f503 330b 	add.w	r3, r3, #142336	; 0x22c00
 80010a4:	9201      	str	r2, [sp, #4]
 80010a6:	6c19      	ldr	r1, [r3, #64]	; 0x40
 80010a8:	f041 0108 	orr.w	r1, r1, #8
 80010ac:	6419      	str	r1, [r3, #64]	; 0x40
 80010ae:	6c1b      	ldr	r3, [r3, #64]	; 0x40
 80010b0:	f003 0308 	and.w	r3, r3, #8
 80010b4:	9301      	str	r3, [sp, #4]
 80010b6:	4611      	mov	r1, r2
 80010b8:	2032      	movs	r0, #50	; 0x32
 80010ba:	9b01      	ldr	r3, [sp, #4]
 80010bc:	f000 f942 	bl	8001344 <HAL_NVIC_SetPriority>
 80010c0:	2032      	movs	r0, #50	; 0x32
 80010c2:	b003      	add	sp, #12
 80010c4:	f85d eb04 	ldr.w	lr, [sp], #4
 80010c8:	f000 b96e 	b.w	80013a8 <HAL_NVIC_EnableIRQ>
 80010cc:	b003      	add	sp, #12
 80010ce:	f85d fb04 	ldr.w	pc, [sp], #4
 80010d2:	bf00      	nop
 80010d4:	40000c00 	.word	0x40000c00

080010d8 <HAL_UART_MspInit>:
 80010d8:	b510      	push	{r4, lr}
 80010da:	2214      	movs	r2, #20
 80010dc:	b08a      	sub	sp, #40	; 0x28
 80010de:	4604      	mov	r4, r0
 80010e0:	2100      	movs	r1, #0
 80010e2:	eb0d 0002 	add.w	r0, sp, r2
 80010e6:	f001 fb3f 	bl	8002768 <memset>
 80010ea:	6823      	ldr	r3, [r4, #0]
 80010ec:	4a2a      	ldr	r2, [pc, #168]	; (8001198 <HAL_UART_MspInit+0xc0>)
 80010ee:	4293      	cmp	r3, r2
 80010f0:	d12c      	bne.n	800114c <HAL_UART_MspInit+0x74>
 80010f2:	4b2a      	ldr	r3, [pc, #168]	; (800119c <HAL_UART_MspInit+0xc4>)
 80010f4:	2400      	movs	r4, #0
 80010f6:	9401      	str	r4, [sp, #4]
 80010f8:	6c1a      	ldr	r2, [r3, #64]	; 0x40
 80010fa:	f442 3200 	orr.w	r2, r2, #131072	; 0x20000
 80010fe:	641a      	str	r2, [r3, #64]	; 0x40
 8001100:	6c1a      	ldr	r2, [r3, #64]	; 0x40
 8001102:	f402 3200 	and.w	r2, r2, #131072	; 0x20000
 8001106:	9201      	str	r2, [sp, #4]
 8001108:	9a01      	ldr	r2, [sp, #4]
 800110a:	9402      	str	r4, [sp, #8]
 800110c:	6b1a      	ldr	r2, [r3, #48]	; 0x30
 800110e:	f042 0208 	orr.w	r2, r2, #8
 8001112:	631a      	str	r2, [r3, #48]	; 0x30
 8001114:	6b1b      	ldr	r3, [r3, #48]	; 0x30
 8001116:	f003 0308 	and.w	r3, r3, #8
 800111a:	9302      	str	r3, [sp, #8]
 800111c:	9b02      	ldr	r3, [sp, #8]
 800111e:	2060      	movs	r0, #96	; 0x60
 8001120:	2302      	movs	r3, #2
 8001122:	e9cd 0305 	strd	r0, r3, [sp, #20]
 8001126:	f04f 0c03 	mov.w	ip, #3
 800112a:	2307      	movs	r3, #7
 800112c:	481c      	ldr	r0, [pc, #112]	; (80011a0 <HAL_UART_MspInit+0xc8>)
 800112e:	a905      	add	r1, sp, #20
 8001130:	e9cd c308 	strd	ip, r3, [sp, #32]
 8001134:	f000 f9ac 	bl	8001490 <HAL_GPIO_Init>
 8001138:	2026      	movs	r0, #38	; 0x26
 800113a:	4622      	mov	r2, r4
 800113c:	4621      	mov	r1, r4
 800113e:	f000 f901 	bl	8001344 <HAL_NVIC_SetPriority>
 8001142:	2026      	movs	r0, #38	; 0x26
 8001144:	f000 f930 	bl	80013a8 <HAL_NVIC_EnableIRQ>
 8001148:	b00a      	add	sp, #40	; 0x28
 800114a:	bd10      	pop	{r4, pc}
 800114c:	4a15      	ldr	r2, [pc, #84]	; (80011a4 <HAL_UART_MspInit+0xcc>)
 800114e:	4293      	cmp	r3, r2
 8001150:	d1fa      	bne.n	8001148 <HAL_UART_MspInit+0x70>
 8001152:	4b12      	ldr	r3, [pc, #72]	; (800119c <HAL_UART_MspInit+0xc4>)
 8001154:	4814      	ldr	r0, [pc, #80]	; (80011a8 <HAL_UART_MspInit+0xd0>)
 8001156:	2100      	movs	r1, #0
 8001158:	9103      	str	r1, [sp, #12]
 800115a:	6c5a      	ldr	r2, [r3, #68]	; 0x44
 800115c:	f042 0220 	orr.w	r2, r2, #32
 8001160:	645a      	str	r2, [r3, #68]	; 0x44
 8001162:	6c5a      	ldr	r2, [r3, #68]	; 0x44
 8001164:	f002 0220 	and.w	r2, r2, #32
 8001168:	9203      	str	r2, [sp, #12]
 800116a:	9a03      	ldr	r2, [sp, #12]
 800116c:	9104      	str	r1, [sp, #16]
 800116e:	6b1a      	ldr	r2, [r3, #48]	; 0x30
 8001170:	f042 0204 	orr.w	r2, r2, #4
 8001174:	631a      	str	r2, [r3, #48]	; 0x30
 8001176:	6b1b      	ldr	r3, [r3, #48]	; 0x30
 8001178:	f003 0304 	and.w	r3, r3, #4
 800117c:	9304      	str	r3, [sp, #16]
 800117e:	9b04      	ldr	r3, [sp, #16]
 8001180:	22c0      	movs	r2, #192	; 0xc0
 8001182:	2302      	movs	r3, #2
 8001184:	e9cd 2305 	strd	r2, r3, [sp, #20]
 8001188:	2103      	movs	r1, #3
 800118a:	2308      	movs	r3, #8
 800118c:	e9cd 1308 	strd	r1, r3, [sp, #32]
 8001190:	a905      	add	r1, sp, #20
 8001192:	f000 f97d 	bl	8001490 <HAL_GPIO_Init>
 8001196:	e7d7      	b.n	8001148 <HAL_UART_MspInit+0x70>
 8001198:	40004400 	.word	0x40004400
 800119c:	40023800 	.word	0x40023800
 80011a0:	40020c00 	.word	0x40020c00
 80011a4:	40011400 	.word	0x40011400
 80011a8:	40020800 	.word	0x40020800

080011ac <NMI_Handler>:
 80011ac:	e7fe      	b.n	80011ac <NMI_Handler>

080011ae <HardFault_Handler>:
 80011ae:	e7fe      	b.n	80011ae <HardFault_Handler>

080011b0 <MemManage_Handler>:
 80011b0:	e7fe      	b.n	80011b0 <MemManage_Handler>

080011b2 <BusFault_Handler>:
 80011b2:	e7fe      	b.n	80011b2 <BusFault_Handler>

080011b4 <UsageFault_Handler>:
 80011b4:	e7fe      	b.n	80011b4 <UsageFault_Handler>

080011b6 <SVC_Handler>:
 80011b6:	4770      	bx	lr

080011b8 <DebugMon_Handler>:
 80011b8:	4770      	bx	lr

080011ba <PendSV_Handler>:
 80011ba:	4770      	bx	lr

080011bc <SysTick_Handler>:
 80011bc:	f000 b89e 	b.w	80012fc <HAL_IncTick>

080011c0 <USART2_IRQHandler>:
 80011c0:	4801      	ldr	r0, [pc, #4]	; (80011c8 <USART2_IRQHandler+0x8>)
 80011c2:	f001 b93d 	b.w	8002440 <HAL_UART_IRQHandler>
 80011c6:	bf00      	nop
 80011c8:	20000258 	.word	0x20000258

080011cc <TIM5_IRQHandler>:
 80011cc:	4801      	ldr	r0, [pc, #4]	; (80011d4 <TIM5_IRQHandler+0x8>)
 80011ce:	f000 bd50 	b.w	8001c72 <HAL_TIM_IRQHandler>
 80011d2:	bf00      	nop
 80011d4:	20000210 	.word	0x20000210

080011d8 <_sbrk>:
 80011d8:	4a0b      	ldr	r2, [pc, #44]	; (8001208 <_sbrk+0x30>)
 80011da:	6811      	ldr	r1, [r2, #0]
 80011dc:	b510      	push	{r4, lr}
 80011de:	4603      	mov	r3, r0
 80011e0:	b909      	cbnz	r1, 80011e6 <_sbrk+0xe>
 80011e2:	490a      	ldr	r1, [pc, #40]	; (800120c <_sbrk+0x34>)
 80011e4:	6011      	str	r1, [r2, #0]
 80011e6:	6810      	ldr	r0, [r2, #0]
 80011e8:	4909      	ldr	r1, [pc, #36]	; (8001210 <_sbrk+0x38>)
 80011ea:	4c0a      	ldr	r4, [pc, #40]	; (8001214 <_sbrk+0x3c>)
 80011ec:	4403      	add	r3, r0
 80011ee:	1b09      	subs	r1, r1, r4
 80011f0:	428b      	cmp	r3, r1
 80011f2:	d906      	bls.n	8001202 <_sbrk+0x2a>
 80011f4:	f001 fac0 	bl	8002778 <__errno>
 80011f8:	230c      	movs	r3, #12
 80011fa:	6003      	str	r3, [r0, #0]
 80011fc:	f04f 30ff 	mov.w	r0, #4294967295
 8001200:	bd10      	pop	{r4, pc}
 8001202:	6013      	str	r3, [r2, #0]
 8001204:	e7fc      	b.n	8001200 <_sbrk+0x28>
 8001206:	bf00      	nop
 8001208:	20000378 	.word	0x20000378
 800120c:	200004c8 	.word	0x200004c8
 8001210:	20020000 	.word	0x20020000
 8001214:	00000400 	.word	0x00000400

08001218 <SystemInit>:
 8001218:	4a03      	ldr	r2, [pc, #12]	; (8001228 <SystemInit+0x10>)
 800121a:	f8d2 3088 	ldr.w	r3, [r2, #136]	; 0x88
 800121e:	f443 0370 	orr.w	r3, r3, #15728640	; 0xf00000
 8001222:	f8c2 3088 	str.w	r3, [r2, #136]	; 0x88
 8001226:	4770      	bx	lr
 8001228:	e000ed00 	.word	0xe000ed00

0800122c <Reset_Handler>:
 800122c:	f8df d034 	ldr.w	sp, [pc, #52]	; 8001264 <LoopFillZerobss+0xe>
 8001230:	f7ff fff2 	bl	8001218 <SystemInit>
 8001234:	480c      	ldr	r0, [pc, #48]	; (8001268 <LoopFillZerobss+0x12>)
 8001236:	490d      	ldr	r1, [pc, #52]	; (800126c <LoopFillZerobss+0x16>)
 8001238:	4a0d      	ldr	r2, [pc, #52]	; (8001270 <LoopFillZerobss+0x1a>)
 800123a:	2300      	movs	r3, #0
 800123c:	e002      	b.n	8001244 <LoopCopyDataInit>

0800123e <CopyDataInit>:
 800123e:	58d4      	ldr	r4, [r2, r3]
 8001240:	50c4      	str	r4, [r0, r3]
 8001242:	3304      	adds	r3, #4

08001244 <LoopCopyDataInit>:
 8001244:	18c4      	adds	r4, r0, r3
 8001246:	428c      	cmp	r4, r1
 8001248:	d3f9      	bcc.n	800123e <CopyDataInit>
 800124a:	4a0a      	ldr	r2, [pc, #40]	; (8001274 <LoopFillZerobss+0x1e>)
 800124c:	4c0a      	ldr	r4, [pc, #40]	; (8001278 <LoopFillZerobss+0x22>)
 800124e:	2300      	movs	r3, #0
 8001250:	e001      	b.n	8001256 <LoopFillZerobss>

08001252 <FillZerobss>:
 8001252:	6013      	str	r3, [r2, #0]
 8001254:	3204      	adds	r2, #4

08001256 <LoopFillZerobss>:
 8001256:	42a2      	cmp	r2, r4
 8001258:	d3fb      	bcc.n	8001252 <FillZerobss>
 800125a:	f001 fa93 	bl	8002784 <__libc_init_array>
 800125e:	f7ff fcd5 	bl	8000c0c <main>
 8001262:	4770      	bx	lr
 8001264:	20020000 	.word	0x20020000
 8001268:	20000000 	.word	0x20000000
 800126c:	2000005c 	.word	0x2000005c
 8001270:	08003104 	.word	0x08003104
 8001274:	2000005c 	.word	0x2000005c
 8001278:	200004c8 	.word	0x200004c8

0800127c <ADC_IRQHandler>:
 800127c:	e7fe      	b.n	800127c <ADC_IRQHandler>
	...

08001280 <HAL_InitTick>:
 8001280:	b538      	push	{r3, r4, r5, lr}
 8001282:	4b0e      	ldr	r3, [pc, #56]	; (80012bc <HAL_InitTick+0x3c>)
 8001284:	781a      	ldrb	r2, [r3, #0]
 8001286:	f44f 737a 	mov.w	r3, #1000	; 0x3e8
 800128a:	fbb3 f3f2 	udiv	r3, r3, r2
 800128e:	4a0c      	ldr	r2, [pc, #48]	; (80012c0 <HAL_InitTick+0x40>)
 8001290:	4605      	mov	r5, r0
 8001292:	6810      	ldr	r0, [r2, #0]
 8001294:	fbb0 f0f3 	udiv	r0, r0, r3
 8001298:	f000 f894 	bl	80013c4 <HAL_SYSTICK_Config>
 800129c:	4604      	mov	r4, r0
 800129e:	b958      	cbnz	r0, 80012b8 <HAL_InitTick+0x38>
 80012a0:	2d0f      	cmp	r5, #15
 80012a2:	d809      	bhi.n	80012b8 <HAL_InitTick+0x38>
 80012a4:	4602      	mov	r2, r0
 80012a6:	4629      	mov	r1, r5
 80012a8:	f04f 30ff 	mov.w	r0, #4294967295
 80012ac:	f000 f84a 	bl	8001344 <HAL_NVIC_SetPriority>
 80012b0:	4b04      	ldr	r3, [pc, #16]	; (80012c4 <HAL_InitTick+0x44>)
 80012b2:	4620      	mov	r0, r4
 80012b4:	601d      	str	r5, [r3, #0]
 80012b6:	bd38      	pop	{r3, r4, r5, pc}
 80012b8:	2001      	movs	r0, #1
 80012ba:	e7fc      	b.n	80012b6 <HAL_InitTick+0x36>
 80012bc:	20000004 	.word	0x20000004
 80012c0:	20000000 	.word	0x20000000
 80012c4:	20000008 	.word	0x20000008

080012c8 <HAL_Init>:
 80012c8:	b508      	push	{r3, lr}
 80012ca:	4b0b      	ldr	r3, [pc, #44]	; (80012f8 <HAL_Init+0x30>)
 80012cc:	681a      	ldr	r2, [r3, #0]
 80012ce:	f442 7200 	orr.w	r2, r2, #512	; 0x200
 80012d2:	601a      	str	r2, [r3, #0]
 80012d4:	681a      	ldr	r2, [r3, #0]
 80012d6:	f442 6280 	orr.w	r2, r2, #1024	; 0x400
 80012da:	601a      	str	r2, [r3, #0]
 80012dc:	681a      	ldr	r2, [r3, #0]
 80012de:	f442 7280 	orr.w	r2, r2, #256	; 0x100
 80012e2:	601a      	str	r2, [r3, #0]
 80012e4:	2003      	movs	r0, #3
 80012e6:	f000 f81b 	bl	8001320 <HAL_NVIC_SetPriorityGrouping>
 80012ea:	200f      	movs	r0, #15
 80012ec:	f7ff ffc8 	bl	8001280 <HAL_InitTick>
 80012f0:	f7ff fe18 	bl	8000f24 <HAL_MspInit>
 80012f4:	2000      	movs	r0, #0
 80012f6:	bd08      	pop	{r3, pc}
 80012f8:	40023c00 	.word	0x40023c00

080012fc <HAL_IncTick>:
 80012fc:	4a03      	ldr	r2, [pc, #12]	; (800130c <HAL_IncTick+0x10>)
 80012fe:	4b04      	ldr	r3, [pc, #16]	; (8001310 <HAL_IncTick+0x14>)
 8001300:	6811      	ldr	r1, [r2, #0]
 8001302:	781b      	ldrb	r3, [r3, #0]
 8001304:	440b      	add	r3, r1
 8001306:	6013      	str	r3, [r2, #0]
 8001308:	4770      	bx	lr
 800130a:	bf00      	nop
 800130c:	2000037c 	.word	0x2000037c
 8001310:	20000004 	.word	0x20000004

08001314 <HAL_GetTick>:
 8001314:	4b01      	ldr	r3, [pc, #4]	; (800131c <HAL_GetTick+0x8>)
 8001316:	6818      	ldr	r0, [r3, #0]
 8001318:	4770      	bx	lr
 800131a:	bf00      	nop
 800131c:	2000037c 	.word	0x2000037c

08001320 <HAL_NVIC_SetPriorityGrouping>:
 8001320:	4907      	ldr	r1, [pc, #28]	; (8001340 <HAL_NVIC_SetPriorityGrouping+0x20>)
 8001322:	68ca      	ldr	r2, [r1, #12]
 8001324:	f422 62e0 	bic.w	r2, r2, #1792	; 0x700
 8001328:	0203      	lsls	r3, r0, #8
 800132a:	0412      	lsls	r2, r2, #16
 800132c:	f403 63e0 	and.w	r3, r3, #1792	; 0x700
 8001330:	0c12      	lsrs	r2, r2, #16
 8001332:	4313      	orrs	r3, r2
 8001334:	f043 63bf 	orr.w	r3, r3, #100139008	; 0x5f80000
 8001338:	f443 3300 	orr.w	r3, r3, #131072	; 0x20000
 800133c:	60cb      	str	r3, [r1, #12]
 800133e:	4770      	bx	lr
 8001340:	e000ed00 	.word	0xe000ed00

08001344 <HAL_NVIC_SetPriority>:
 8001344:	4b16      	ldr	r3, [pc, #88]	; (80013a0 <HAL_NVIC_SetPriority+0x5c>)
 8001346:	b530      	push	{r4, r5, lr}
 8001348:	68dc      	ldr	r4, [r3, #12]
 800134a:	f3c4 2402 	ubfx	r4, r4, #8, #3
 800134e:	f1c4 0307 	rsb	r3, r4, #7
 8001352:	1d25      	adds	r5, r4, #4
 8001354:	2b04      	cmp	r3, #4
 8001356:	bf28      	it	cs
 8001358:	2304      	movcs	r3, #4
 800135a:	2d06      	cmp	r5, #6
 800135c:	f04f 35ff 	mov.w	r5, #4294967295
 8001360:	bf8c      	ite	hi
 8001362:	3c03      	subhi	r4, #3
 8001364:	2400      	movls	r4, #0
 8001366:	fa05 f303 	lsl.w	r3, r5, r3
 800136a:	ea21 0303 	bic.w	r3, r1, r3
 800136e:	40a5      	lsls	r5, r4
 8001370:	ea22 0205 	bic.w	r2, r2, r5
 8001374:	40a3      	lsls	r3, r4
 8001376:	2800      	cmp	r0, #0
 8001378:	ea43 0302 	orr.w	r3, r3, r2
 800137c:	bfac      	ite	ge
 800137e:	f100 4060 	addge.w	r0, r0, #3758096384	; 0xe0000000
 8001382:	4a08      	ldrlt	r2, [pc, #32]	; (80013a4 <HAL_NVIC_SetPriority+0x60>)
 8001384:	ea4f 1303 	mov.w	r3, r3, lsl #4
 8001388:	bfb8      	it	lt
 800138a:	f000 000f 	andlt.w	r0, r0, #15
 800138e:	b2db      	uxtb	r3, r3
 8001390:	bfaa      	itet	ge
 8001392:	f500 4061 	addge.w	r0, r0, #57600	; 0xe100
 8001396:	5413      	strblt	r3, [r2, r0]
 8001398:	f880 3300 	strbge.w	r3, [r0, #768]	; 0x300
 800139c:	bd30      	pop	{r4, r5, pc}
 800139e:	bf00      	nop
 80013a0:	e000ed00 	.word	0xe000ed00
 80013a4:	e000ed14 	.word	0xe000ed14

080013a8 <HAL_NVIC_EnableIRQ>:
 80013a8:	2800      	cmp	r0, #0
 80013aa:	db07      	blt.n	80013bc <HAL_NVIC_EnableIRQ+0x14>
 80013ac:	4a04      	ldr	r2, [pc, #16]	; (80013c0 <HAL_NVIC_EnableIRQ+0x18>)
 80013ae:	0941      	lsrs	r1, r0, #5
 80013b0:	2301      	movs	r3, #1
 80013b2:	f000 001f 	and.w	r0, r0, #31
 80013b6:	4083      	lsls	r3, r0
 80013b8:	f842 3021 	str.w	r3, [r2, r1, lsl #2]
 80013bc:	4770      	bx	lr
 80013be:	bf00      	nop
 80013c0:	e000e100 	.word	0xe000e100

080013c4 <HAL_SYSTICK_Config>:
 80013c4:	3801      	subs	r0, #1
 80013c6:	f1b0 7f80 	cmp.w	r0, #16777216	; 0x1000000
 80013ca:	d20b      	bcs.n	80013e4 <HAL_SYSTICK_Config+0x20>
 80013cc:	f04f 23e0 	mov.w	r3, #3758153728	; 0xe000e000
 80013d0:	4a05      	ldr	r2, [pc, #20]	; (80013e8 <HAL_SYSTICK_Config+0x24>)
 80013d2:	6158      	str	r0, [r3, #20]
 80013d4:	21f0      	movs	r1, #240	; 0xf0
 80013d6:	f882 1023 	strb.w	r1, [r2, #35]	; 0x23
 80013da:	2000      	movs	r0, #0
 80013dc:	2207      	movs	r2, #7
 80013de:	6198      	str	r0, [r3, #24]
 80013e0:	611a      	str	r2, [r3, #16]
 80013e2:	4770      	bx	lr
 80013e4:	2001      	movs	r0, #1
 80013e6:	4770      	bx	lr
 80013e8:	e000ed00 	.word	0xe000ed00

080013ec <HAL_DMA_Abort>:
 80013ec:	b570      	push	{r4, r5, r6, lr}
 80013ee:	4604      	mov	r4, r0
 80013f0:	6d86      	ldr	r6, [r0, #88]	; 0x58
 80013f2:	f7ff ff8f 	bl	8001314 <HAL_GetTick>
 80013f6:	f894 3035 	ldrb.w	r3, [r4, #53]	; 0x35
 80013fa:	2b02      	cmp	r3, #2
 80013fc:	4605      	mov	r5, r0
 80013fe:	d006      	beq.n	800140e <HAL_DMA_Abort+0x22>
 8001400:	2380      	movs	r3, #128	; 0x80
 8001402:	6563      	str	r3, [r4, #84]	; 0x54
 8001404:	2001      	movs	r0, #1
 8001406:	2300      	movs	r3, #0
 8001408:	f884 3034 	strb.w	r3, [r4, #52]	; 0x34
 800140c:	bd70      	pop	{r4, r5, r6, pc}
 800140e:	6823      	ldr	r3, [r4, #0]
 8001410:	681a      	ldr	r2, [r3, #0]
 8001412:	f022 0216 	bic.w	r2, r2, #22
 8001416:	601a      	str	r2, [r3, #0]
 8001418:	695a      	ldr	r2, [r3, #20]
 800141a:	f022 0280 	bic.w	r2, r2, #128	; 0x80
 800141e:	615a      	str	r2, [r3, #20]
 8001420:	6c22      	ldr	r2, [r4, #64]	; 0x40
 8001422:	b90a      	cbnz	r2, 8001428 <HAL_DMA_Abort+0x3c>
 8001424:	6ca2      	ldr	r2, [r4, #72]	; 0x48
 8001426:	b11a      	cbz	r2, 8001430 <HAL_DMA_Abort+0x44>
 8001428:	681a      	ldr	r2, [r3, #0]
 800142a:	f022 0208 	bic.w	r2, r2, #8
 800142e:	601a      	str	r2, [r3, #0]
 8001430:	681a      	ldr	r2, [r3, #0]
 8001432:	f022 0201 	bic.w	r2, r2, #1
 8001436:	601a      	str	r2, [r3, #0]
 8001438:	6823      	ldr	r3, [r4, #0]
 800143a:	681b      	ldr	r3, [r3, #0]
 800143c:	f013 0301 	ands.w	r3, r3, #1
 8001440:	d108      	bne.n	8001454 <HAL_DMA_Abort+0x68>
 8001442:	6de1      	ldr	r1, [r4, #92]	; 0x5c
 8001444:	223f      	movs	r2, #63	; 0x3f
 8001446:	408a      	lsls	r2, r1
 8001448:	60b2      	str	r2, [r6, #8]
 800144a:	2201      	movs	r2, #1
 800144c:	f884 2035 	strb.w	r2, [r4, #53]	; 0x35
 8001450:	4618      	mov	r0, r3
 8001452:	e7d8      	b.n	8001406 <HAL_DMA_Abort+0x1a>
 8001454:	f7ff ff5e 	bl	8001314 <HAL_GetTick>
 8001458:	1b40      	subs	r0, r0, r5
 800145a:	2805      	cmp	r0, #5
 800145c:	d9ec      	bls.n	8001438 <HAL_DMA_Abort+0x4c>
 800145e:	2320      	movs	r3, #32
 8001460:	2003      	movs	r0, #3
 8001462:	6563      	str	r3, [r4, #84]	; 0x54
 8001464:	f884 0035 	strb.w	r0, [r4, #53]	; 0x35
 8001468:	e7cd      	b.n	8001406 <HAL_DMA_Abort+0x1a>

0800146a <HAL_DMA_Abort_IT>:
 800146a:	f890 3035 	ldrb.w	r3, [r0, #53]	; 0x35
 800146e:	2b02      	cmp	r3, #2
 8001470:	d003      	beq.n	800147a <HAL_DMA_Abort_IT+0x10>
 8001472:	2380      	movs	r3, #128	; 0x80
 8001474:	6543      	str	r3, [r0, #84]	; 0x54
 8001476:	2001      	movs	r0, #1
 8001478:	4770      	bx	lr
 800147a:	6802      	ldr	r2, [r0, #0]
 800147c:	2305      	movs	r3, #5
 800147e:	f880 3035 	strb.w	r3, [r0, #53]	; 0x35
 8001482:	6813      	ldr	r3, [r2, #0]
 8001484:	f023 0301 	bic.w	r3, r3, #1
 8001488:	6013      	str	r3, [r2, #0]
 800148a:	2000      	movs	r0, #0
 800148c:	4770      	bx	lr
	...

08001490 <HAL_GPIO_Init>:
 8001490:	e92d 4ff7 	stmdb	sp!, {r0, r1, r2, r4, r5, r6, r7, r8, r9, sl, fp, lr}
 8001494:	f8df 9184 	ldr.w	r9, [pc, #388]	; 800161c <HAL_GPIO_Init+0x18c>
 8001498:	4a5e      	ldr	r2, [pc, #376]	; (8001614 <HAL_GPIO_Init+0x184>)
 800149a:	2300      	movs	r3, #0
 800149c:	680d      	ldr	r5, [r1, #0]
 800149e:	2401      	movs	r4, #1
 80014a0:	409c      	lsls	r4, r3
 80014a2:	ea04 0c05 	and.w	ip, r4, r5
 80014a6:	43ac      	bics	r4, r5
 80014a8:	f040 80a5 	bne.w	80015f6 <HAL_GPIO_Init+0x166>
 80014ac:	684d      	ldr	r5, [r1, #4]
 80014ae:	f005 0403 	and.w	r4, r5, #3
 80014b2:	ea4f 0843 	mov.w	r8, r3, lsl #1
 80014b6:	2603      	movs	r6, #3
 80014b8:	1e67      	subs	r7, r4, #1
 80014ba:	fa06 f608 	lsl.w	r6, r6, r8
 80014be:	2f01      	cmp	r7, #1
 80014c0:	ea6f 0606 	mvn.w	r6, r6
 80014c4:	d834      	bhi.n	8001530 <HAL_GPIO_Init+0xa0>
 80014c6:	6887      	ldr	r7, [r0, #8]
 80014c8:	ea07 0e06 	and.w	lr, r7, r6
 80014cc:	68cf      	ldr	r7, [r1, #12]
 80014ce:	fa07 f708 	lsl.w	r7, r7, r8
 80014d2:	ea47 070e 	orr.w	r7, r7, lr
 80014d6:	6087      	str	r7, [r0, #8]
 80014d8:	6847      	ldr	r7, [r0, #4]
 80014da:	ea27 0e0c 	bic.w	lr, r7, ip
 80014de:	f3c5 1700 	ubfx	r7, r5, #4, #1
 80014e2:	409f      	lsls	r7, r3
 80014e4:	ea47 070e 	orr.w	r7, r7, lr
 80014e8:	6047      	str	r7, [r0, #4]
 80014ea:	68c7      	ldr	r7, [r0, #12]
 80014ec:	ea07 0e06 	and.w	lr, r7, r6
 80014f0:	688f      	ldr	r7, [r1, #8]
 80014f2:	fa07 f708 	lsl.w	r7, r7, r8
 80014f6:	ea47 070e 	orr.w	r7, r7, lr
 80014fa:	2c02      	cmp	r4, #2
 80014fc:	60c7      	str	r7, [r0, #12]
 80014fe:	d119      	bne.n	8001534 <HAL_GPIO_Init+0xa4>
 8001500:	ea4f 0ad3 	mov.w	sl, r3, lsr #3
 8001504:	eb00 0a8a 	add.w	sl, r0, sl, lsl #2
 8001508:	f003 0b07 	and.w	fp, r3, #7
 800150c:	f8da 7020 	ldr.w	r7, [sl, #32]
 8001510:	ea4f 0b8b 	mov.w	fp, fp, lsl #2
 8001514:	f04f 0e0f 	mov.w	lr, #15
 8001518:	fa0e fe0b 	lsl.w	lr, lr, fp
 800151c:	ea27 0e0e 	bic.w	lr, r7, lr
 8001520:	690f      	ldr	r7, [r1, #16]
 8001522:	fa07 f70b 	lsl.w	r7, r7, fp
 8001526:	ea47 070e 	orr.w	r7, r7, lr
 800152a:	f8ca 7020 	str.w	r7, [sl, #32]
 800152e:	e001      	b.n	8001534 <HAL_GPIO_Init+0xa4>
 8001530:	2c03      	cmp	r4, #3
 8001532:	d1da      	bne.n	80014ea <HAL_GPIO_Init+0x5a>
 8001534:	6807      	ldr	r7, [r0, #0]
 8001536:	fa04 f408 	lsl.w	r4, r4, r8
 800153a:	4037      	ands	r7, r6
 800153c:	433c      	orrs	r4, r7
 800153e:	f415 3f40 	tst.w	r5, #196608	; 0x30000
 8001542:	6004      	str	r4, [r0, #0]
 8001544:	d057      	beq.n	80015f6 <HAL_GPIO_Init+0x166>
 8001546:	f04f 0a00 	mov.w	sl, #0
 800154a:	f8cd a004 	str.w	sl, [sp, #4]
 800154e:	f8d9 6044 	ldr.w	r6, [r9, #68]	; 0x44
 8001552:	4c31      	ldr	r4, [pc, #196]	; (8001618 <HAL_GPIO_Init+0x188>)
 8001554:	f446 4680 	orr.w	r6, r6, #16384	; 0x4000
 8001558:	f8c9 6044 	str.w	r6, [r9, #68]	; 0x44
 800155c:	f8d9 6044 	ldr.w	r6, [r9, #68]	; 0x44
 8001560:	f406 4680 	and.w	r6, r6, #16384	; 0x4000
 8001564:	9601      	str	r6, [sp, #4]
 8001566:	9e01      	ldr	r6, [sp, #4]
 8001568:	f023 0603 	bic.w	r6, r3, #3
 800156c:	f106 4680 	add.w	r6, r6, #1073741824	; 0x40000000
 8001570:	f506 369c 	add.w	r6, r6, #79872	; 0x13800
 8001574:	f003 0e03 	and.w	lr, r3, #3
 8001578:	f8d6 8008 	ldr.w	r8, [r6, #8]
 800157c:	ea4f 0e8e 	mov.w	lr, lr, lsl #2
 8001580:	270f      	movs	r7, #15
 8001582:	fa07 f70e 	lsl.w	r7, r7, lr
 8001586:	42a0      	cmp	r0, r4
 8001588:	ea28 0707 	bic.w	r7, r8, r7
 800158c:	d03a      	beq.n	8001604 <HAL_GPIO_Init+0x174>
 800158e:	f504 6480 	add.w	r4, r4, #1024	; 0x400
 8001592:	42a0      	cmp	r0, r4
 8001594:	d038      	beq.n	8001608 <HAL_GPIO_Init+0x178>
 8001596:	f504 6480 	add.w	r4, r4, #1024	; 0x400
 800159a:	42a0      	cmp	r0, r4
 800159c:	d036      	beq.n	800160c <HAL_GPIO_Init+0x17c>
 800159e:	f504 6480 	add.w	r4, r4, #1024	; 0x400
 80015a2:	42a0      	cmp	r0, r4
 80015a4:	d034      	beq.n	8001610 <HAL_GPIO_Init+0x180>
 80015a6:	f504 6480 	add.w	r4, r4, #1024	; 0x400
 80015aa:	42a0      	cmp	r0, r4
 80015ac:	bf0c      	ite	eq
 80015ae:	2404      	moveq	r4, #4
 80015b0:	2407      	movne	r4, #7
 80015b2:	fa04 f40e 	lsl.w	r4, r4, lr
 80015b6:	433c      	orrs	r4, r7
 80015b8:	60b4      	str	r4, [r6, #8]
 80015ba:	6894      	ldr	r4, [r2, #8]
 80015bc:	ea6f 060c 	mvn.w	r6, ip
 80015c0:	02ef      	lsls	r7, r5, #11
 80015c2:	bf54      	ite	pl
 80015c4:	4034      	andpl	r4, r6
 80015c6:	ea4c 0404 	orrmi.w	r4, ip, r4
 80015ca:	6094      	str	r4, [r2, #8]
 80015cc:	68d4      	ldr	r4, [r2, #12]
 80015ce:	02af      	lsls	r7, r5, #10
 80015d0:	bf54      	ite	pl
 80015d2:	4034      	andpl	r4, r6
 80015d4:	ea4c 0404 	orrmi.w	r4, ip, r4
 80015d8:	60d4      	str	r4, [r2, #12]
 80015da:	6854      	ldr	r4, [r2, #4]
 80015dc:	03af      	lsls	r7, r5, #14
 80015de:	bf54      	ite	pl
 80015e0:	4034      	andpl	r4, r6
 80015e2:	ea4c 0404 	orrmi.w	r4, ip, r4
 80015e6:	6054      	str	r4, [r2, #4]
 80015e8:	6814      	ldr	r4, [r2, #0]
 80015ea:	03ed      	lsls	r5, r5, #15
 80015ec:	bf54      	ite	pl
 80015ee:	4034      	andpl	r4, r6
 80015f0:	ea4c 0404 	orrmi.w	r4, ip, r4
 80015f4:	6014      	str	r4, [r2, #0]
 80015f6:	3301      	adds	r3, #1
 80015f8:	2b10      	cmp	r3, #16
 80015fa:	f47f af4f 	bne.w	800149c <HAL_GPIO_Init+0xc>
 80015fe:	b003      	add	sp, #12
 8001600:	e8bd 8ff0 	ldmia.w	sp!, {r4, r5, r6, r7, r8, r9, sl, fp, pc}
 8001604:	4654      	mov	r4, sl
 8001606:	e7d4      	b.n	80015b2 <HAL_GPIO_Init+0x122>
 8001608:	2401      	movs	r4, #1
 800160a:	e7d2      	b.n	80015b2 <HAL_GPIO_Init+0x122>
 800160c:	2402      	movs	r4, #2
 800160e:	e7d0      	b.n	80015b2 <HAL_GPIO_Init+0x122>
 8001610:	2403      	movs	r4, #3
 8001612:	e7ce      	b.n	80015b2 <HAL_GPIO_Init+0x122>
 8001614:	40013c00 	.word	0x40013c00
 8001618:	40020000 	.word	0x40020000
 800161c:	40023800 	.word	0x40023800

08001620 <HAL_GPIO_WritePin>:
 8001620:	b10a      	cbz	r2, 8001626 <HAL_GPIO_WritePin+0x6>
 8001622:	6181      	str	r1, [r0, #24]
 8001624:	4770      	bx	lr
 8001626:	0409      	lsls	r1, r1, #16
 8001628:	e7fb      	b.n	8001622 <HAL_GPIO_WritePin+0x2>
	...

0800162c <HAL_RCC_OscConfig>:
 800162c:	e92d 41f3 	stmdb	sp!, {r0, r1, r4, r5, r6, r7, r8, lr}
 8001630:	4604      	mov	r4, r0
 8001632:	b340      	cbz	r0, 8001686 <HAL_RCC_OscConfig+0x5a>
 8001634:	6803      	ldr	r3, [r0, #0]
 8001636:	07dd      	lsls	r5, r3, #31
 8001638:	d410      	bmi.n	800165c <HAL_RCC_OscConfig+0x30>
 800163a:	6823      	ldr	r3, [r4, #0]
 800163c:	0798      	lsls	r0, r3, #30
 800163e:	d45b      	bmi.n	80016f8 <HAL_RCC_OscConfig+0xcc>
 8001640:	6823      	ldr	r3, [r4, #0]
 8001642:	071a      	lsls	r2, r3, #28
 8001644:	f100 809d 	bmi.w	8001782 <HAL_RCC_OscConfig+0x156>
 8001648:	6823      	ldr	r3, [r4, #0]
 800164a:	075b      	lsls	r3, r3, #29
 800164c:	f100 80bd 	bmi.w	80017ca <HAL_RCC_OscConfig+0x19e>
 8001650:	69a0      	ldr	r0, [r4, #24]
 8001652:	2800      	cmp	r0, #0
 8001654:	f040 8124 	bne.w	80018a0 <HAL_RCC_OscConfig+0x274>
 8001658:	2000      	movs	r0, #0
 800165a:	e02c      	b.n	80016b6 <HAL_RCC_OscConfig+0x8a>
 800165c:	4b8d      	ldr	r3, [pc, #564]	; (8001894 <HAL_RCC_OscConfig+0x268>)
 800165e:	689a      	ldr	r2, [r3, #8]
 8001660:	f002 020c 	and.w	r2, r2, #12
 8001664:	2a04      	cmp	r2, #4
 8001666:	d007      	beq.n	8001678 <HAL_RCC_OscConfig+0x4c>
 8001668:	689a      	ldr	r2, [r3, #8]
 800166a:	f002 020c 	and.w	r2, r2, #12
 800166e:	2a08      	cmp	r2, #8
 8001670:	d10b      	bne.n	800168a <HAL_RCC_OscConfig+0x5e>
 8001672:	685b      	ldr	r3, [r3, #4]
 8001674:	0259      	lsls	r1, r3, #9
 8001676:	d508      	bpl.n	800168a <HAL_RCC_OscConfig+0x5e>
 8001678:	4b86      	ldr	r3, [pc, #536]	; (8001894 <HAL_RCC_OscConfig+0x268>)
 800167a:	681b      	ldr	r3, [r3, #0]
 800167c:	039a      	lsls	r2, r3, #14
 800167e:	d5dc      	bpl.n	800163a <HAL_RCC_OscConfig+0xe>
 8001680:	6863      	ldr	r3, [r4, #4]
 8001682:	2b00      	cmp	r3, #0
 8001684:	d1d9      	bne.n	800163a <HAL_RCC_OscConfig+0xe>
 8001686:	2001      	movs	r0, #1
 8001688:	e015      	b.n	80016b6 <HAL_RCC_OscConfig+0x8a>
 800168a:	6863      	ldr	r3, [r4, #4]
 800168c:	4d81      	ldr	r5, [pc, #516]	; (8001894 <HAL_RCC_OscConfig+0x268>)
 800168e:	f5b3 3f80 	cmp.w	r3, #65536	; 0x10000
 8001692:	d113      	bne.n	80016bc <HAL_RCC_OscConfig+0x90>
 8001694:	682b      	ldr	r3, [r5, #0]
 8001696:	f443 3380 	orr.w	r3, r3, #65536	; 0x10000
 800169a:	602b      	str	r3, [r5, #0]
 800169c:	f7ff fe3a 	bl	8001314 <HAL_GetTick>
 80016a0:	4e7c      	ldr	r6, [pc, #496]	; (8001894 <HAL_RCC_OscConfig+0x268>)
 80016a2:	4605      	mov	r5, r0
 80016a4:	6833      	ldr	r3, [r6, #0]
 80016a6:	039b      	lsls	r3, r3, #14
 80016a8:	d4c7      	bmi.n	800163a <HAL_RCC_OscConfig+0xe>
 80016aa:	f7ff fe33 	bl	8001314 <HAL_GetTick>
 80016ae:	1b40      	subs	r0, r0, r5
 80016b0:	2864      	cmp	r0, #100	; 0x64
 80016b2:	d9f7      	bls.n	80016a4 <HAL_RCC_OscConfig+0x78>
 80016b4:	2003      	movs	r0, #3
 80016b6:	b002      	add	sp, #8
 80016b8:	e8bd 81f0 	ldmia.w	sp!, {r4, r5, r6, r7, r8, pc}
 80016bc:	f5b3 2fa0 	cmp.w	r3, #327680	; 0x50000
 80016c0:	d104      	bne.n	80016cc <HAL_RCC_OscConfig+0xa0>
 80016c2:	682b      	ldr	r3, [r5, #0]
 80016c4:	f443 2380 	orr.w	r3, r3, #262144	; 0x40000
 80016c8:	602b      	str	r3, [r5, #0]
 80016ca:	e7e3      	b.n	8001694 <HAL_RCC_OscConfig+0x68>
 80016cc:	682a      	ldr	r2, [r5, #0]
 80016ce:	f422 3280 	bic.w	r2, r2, #65536	; 0x10000
 80016d2:	602a      	str	r2, [r5, #0]
 80016d4:	682a      	ldr	r2, [r5, #0]
 80016d6:	f422 2280 	bic.w	r2, r2, #262144	; 0x40000
 80016da:	602a      	str	r2, [r5, #0]
 80016dc:	2b00      	cmp	r3, #0
 80016de:	d1dd      	bne.n	800169c <HAL_RCC_OscConfig+0x70>
 80016e0:	f7ff fe18 	bl	8001314 <HAL_GetTick>
 80016e4:	4606      	mov	r6, r0
 80016e6:	682b      	ldr	r3, [r5, #0]
 80016e8:	039f      	lsls	r7, r3, #14
 80016ea:	d5a6      	bpl.n	800163a <HAL_RCC_OscConfig+0xe>
 80016ec:	f7ff fe12 	bl	8001314 <HAL_GetTick>
 80016f0:	1b80      	subs	r0, r0, r6
 80016f2:	2864      	cmp	r0, #100	; 0x64
 80016f4:	d9f7      	bls.n	80016e6 <HAL_RCC_OscConfig+0xba>
 80016f6:	e7dd      	b.n	80016b4 <HAL_RCC_OscConfig+0x88>
 80016f8:	4b66      	ldr	r3, [pc, #408]	; (8001894 <HAL_RCC_OscConfig+0x268>)
 80016fa:	689a      	ldr	r2, [r3, #8]
 80016fc:	f012 0f0c 	tst.w	r2, #12
 8001700:	d007      	beq.n	8001712 <HAL_RCC_OscConfig+0xe6>
 8001702:	689a      	ldr	r2, [r3, #8]
 8001704:	f002 020c 	and.w	r2, r2, #12
 8001708:	2a08      	cmp	r2, #8
 800170a:	d111      	bne.n	8001730 <HAL_RCC_OscConfig+0x104>
 800170c:	685b      	ldr	r3, [r3, #4]
 800170e:	025e      	lsls	r6, r3, #9
 8001710:	d40e      	bmi.n	8001730 <HAL_RCC_OscConfig+0x104>
 8001712:	4a60      	ldr	r2, [pc, #384]	; (8001894 <HAL_RCC_OscConfig+0x268>)
 8001714:	6813      	ldr	r3, [r2, #0]
 8001716:	079d      	lsls	r5, r3, #30
 8001718:	d502      	bpl.n	8001720 <HAL_RCC_OscConfig+0xf4>
 800171a:	68e3      	ldr	r3, [r4, #12]
 800171c:	2b01      	cmp	r3, #1
 800171e:	d1b2      	bne.n	8001686 <HAL_RCC_OscConfig+0x5a>
 8001720:	6813      	ldr	r3, [r2, #0]
 8001722:	6921      	ldr	r1, [r4, #16]
 8001724:	f023 03f8 	bic.w	r3, r3, #248	; 0xf8
 8001728:	ea43 03c1 	orr.w	r3, r3, r1, lsl #3
 800172c:	6013      	str	r3, [r2, #0]
 800172e:	e787      	b.n	8001640 <HAL_RCC_OscConfig+0x14>
 8001730:	68e2      	ldr	r2, [r4, #12]
 8001732:	4b59      	ldr	r3, [pc, #356]	; (8001898 <HAL_RCC_OscConfig+0x26c>)
 8001734:	b1b2      	cbz	r2, 8001764 <HAL_RCC_OscConfig+0x138>
 8001736:	2201      	movs	r2, #1
 8001738:	601a      	str	r2, [r3, #0]
 800173a:	f7ff fdeb 	bl	8001314 <HAL_GetTick>
 800173e:	4d55      	ldr	r5, [pc, #340]	; (8001894 <HAL_RCC_OscConfig+0x268>)
 8001740:	4606      	mov	r6, r0
 8001742:	682b      	ldr	r3, [r5, #0]
 8001744:	0798      	lsls	r0, r3, #30
 8001746:	d507      	bpl.n	8001758 <HAL_RCC_OscConfig+0x12c>
 8001748:	682b      	ldr	r3, [r5, #0]
 800174a:	6922      	ldr	r2, [r4, #16]
 800174c:	f023 03f8 	bic.w	r3, r3, #248	; 0xf8
 8001750:	ea43 03c2 	orr.w	r3, r3, r2, lsl #3
 8001754:	602b      	str	r3, [r5, #0]
 8001756:	e773      	b.n	8001640 <HAL_RCC_OscConfig+0x14>
 8001758:	f7ff fddc 	bl	8001314 <HAL_GetTick>
 800175c:	1b80      	subs	r0, r0, r6
 800175e:	2802      	cmp	r0, #2
 8001760:	d9ef      	bls.n	8001742 <HAL_RCC_OscConfig+0x116>
 8001762:	e7a7      	b.n	80016b4 <HAL_RCC_OscConfig+0x88>
 8001764:	601a      	str	r2, [r3, #0]
 8001766:	f7ff fdd5 	bl	8001314 <HAL_GetTick>
 800176a:	4e4a      	ldr	r6, [pc, #296]	; (8001894 <HAL_RCC_OscConfig+0x268>)
 800176c:	4605      	mov	r5, r0
 800176e:	6833      	ldr	r3, [r6, #0]
 8001770:	0799      	lsls	r1, r3, #30
 8001772:	f57f af65 	bpl.w	8001640 <HAL_RCC_OscConfig+0x14>
 8001776:	f7ff fdcd 	bl	8001314 <HAL_GetTick>
 800177a:	1b40      	subs	r0, r0, r5
 800177c:	2802      	cmp	r0, #2
 800177e:	d9f6      	bls.n	800176e <HAL_RCC_OscConfig+0x142>
 8001780:	e798      	b.n	80016b4 <HAL_RCC_OscConfig+0x88>
 8001782:	6962      	ldr	r2, [r4, #20]
 8001784:	4b44      	ldr	r3, [pc, #272]	; (8001898 <HAL_RCC_OscConfig+0x26c>)
 8001786:	b182      	cbz	r2, 80017aa <HAL_RCC_OscConfig+0x17e>
 8001788:	2201      	movs	r2, #1
 800178a:	f8c3 2e80 	str.w	r2, [r3, #3712]	; 0xe80
 800178e:	f7ff fdc1 	bl	8001314 <HAL_GetTick>
 8001792:	4e40      	ldr	r6, [pc, #256]	; (8001894 <HAL_RCC_OscConfig+0x268>)
 8001794:	4605      	mov	r5, r0
 8001796:	6f73      	ldr	r3, [r6, #116]	; 0x74
 8001798:	079f      	lsls	r7, r3, #30
 800179a:	f53f af55 	bmi.w	8001648 <HAL_RCC_OscConfig+0x1c>
 800179e:	f7ff fdb9 	bl	8001314 <HAL_GetTick>
 80017a2:	1b40      	subs	r0, r0, r5
 80017a4:	2802      	cmp	r0, #2
 80017a6:	d9f6      	bls.n	8001796 <HAL_RCC_OscConfig+0x16a>
 80017a8:	e784      	b.n	80016b4 <HAL_RCC_OscConfig+0x88>
 80017aa:	f8c3 2e80 	str.w	r2, [r3, #3712]	; 0xe80
 80017ae:	f7ff fdb1 	bl	8001314 <HAL_GetTick>
 80017b2:	4e38      	ldr	r6, [pc, #224]	; (8001894 <HAL_RCC_OscConfig+0x268>)
 80017b4:	4605      	mov	r5, r0
 80017b6:	6f73      	ldr	r3, [r6, #116]	; 0x74
 80017b8:	0798      	lsls	r0, r3, #30
 80017ba:	f57f af45 	bpl.w	8001648 <HAL_RCC_OscConfig+0x1c>
 80017be:	f7ff fda9 	bl	8001314 <HAL_GetTick>
 80017c2:	1b40      	subs	r0, r0, r5
 80017c4:	2802      	cmp	r0, #2
 80017c6:	d9f6      	bls.n	80017b6 <HAL_RCC_OscConfig+0x18a>
 80017c8:	e774      	b.n	80016b4 <HAL_RCC_OscConfig+0x88>
 80017ca:	4b32      	ldr	r3, [pc, #200]	; (8001894 <HAL_RCC_OscConfig+0x268>)
 80017cc:	6c1a      	ldr	r2, [r3, #64]	; 0x40
 80017ce:	f012 5280 	ands.w	r2, r2, #268435456	; 0x10000000
 80017d2:	d128      	bne.n	8001826 <HAL_RCC_OscConfig+0x1fa>
 80017d4:	9201      	str	r2, [sp, #4]
 80017d6:	6c1a      	ldr	r2, [r3, #64]	; 0x40
 80017d8:	f042 5280 	orr.w	r2, r2, #268435456	; 0x10000000
 80017dc:	641a      	str	r2, [r3, #64]	; 0x40
 80017de:	6c1b      	ldr	r3, [r3, #64]	; 0x40
 80017e0:	f003 5380 	and.w	r3, r3, #268435456	; 0x10000000
 80017e4:	9301      	str	r3, [sp, #4]
 80017e6:	9b01      	ldr	r3, [sp, #4]
 80017e8:	2701      	movs	r7, #1
 80017ea:	4d2c      	ldr	r5, [pc, #176]	; (800189c <HAL_RCC_OscConfig+0x270>)
 80017ec:	682b      	ldr	r3, [r5, #0]
 80017ee:	05d9      	lsls	r1, r3, #23
 80017f0:	d51b      	bpl.n	800182a <HAL_RCC_OscConfig+0x1fe>
 80017f2:	68a3      	ldr	r3, [r4, #8]
 80017f4:	4d27      	ldr	r5, [pc, #156]	; (8001894 <HAL_RCC_OscConfig+0x268>)
 80017f6:	2b01      	cmp	r3, #1
 80017f8:	d127      	bne.n	800184a <HAL_RCC_OscConfig+0x21e>
 80017fa:	6f2b      	ldr	r3, [r5, #112]	; 0x70
 80017fc:	f043 0301 	orr.w	r3, r3, #1
 8001800:	672b      	str	r3, [r5, #112]	; 0x70
 8001802:	f7ff fd87 	bl	8001314 <HAL_GetTick>
 8001806:	4e23      	ldr	r6, [pc, #140]	; (8001894 <HAL_RCC_OscConfig+0x268>)
 8001808:	4605      	mov	r5, r0
 800180a:	f241 3888 	movw	r8, #5000	; 0x1388
 800180e:	6f33      	ldr	r3, [r6, #112]	; 0x70
 8001810:	079b      	lsls	r3, r3, #30
 8001812:	d539      	bpl.n	8001888 <HAL_RCC_OscConfig+0x25c>
 8001814:	2f00      	cmp	r7, #0
 8001816:	f43f af1b 	beq.w	8001650 <HAL_RCC_OscConfig+0x24>
 800181a:	4a1e      	ldr	r2, [pc, #120]	; (8001894 <HAL_RCC_OscConfig+0x268>)
 800181c:	6c13      	ldr	r3, [r2, #64]	; 0x40
 800181e:	f023 5380 	bic.w	r3, r3, #268435456	; 0x10000000
 8001822:	6413      	str	r3, [r2, #64]	; 0x40
 8001824:	e714      	b.n	8001650 <HAL_RCC_OscConfig+0x24>
 8001826:	2700      	movs	r7, #0
 8001828:	e7df      	b.n	80017ea <HAL_RCC_OscConfig+0x1be>
 800182a:	682b      	ldr	r3, [r5, #0]
 800182c:	f443 7380 	orr.w	r3, r3, #256	; 0x100
 8001830:	602b      	str	r3, [r5, #0]
 8001832:	f7ff fd6f 	bl	8001314 <HAL_GetTick>
 8001836:	4606      	mov	r6, r0
 8001838:	682b      	ldr	r3, [r5, #0]
 800183a:	05da      	lsls	r2, r3, #23
 800183c:	d4d9      	bmi.n	80017f2 <HAL_RCC_OscConfig+0x1c6>
 800183e:	f7ff fd69 	bl	8001314 <HAL_GetTick>
 8001842:	1b80      	subs	r0, r0, r6
 8001844:	2802      	cmp	r0, #2
 8001846:	d9f7      	bls.n	8001838 <HAL_RCC_OscConfig+0x20c>
 8001848:	e734      	b.n	80016b4 <HAL_RCC_OscConfig+0x88>
 800184a:	2b05      	cmp	r3, #5
 800184c:	d104      	bne.n	8001858 <HAL_RCC_OscConfig+0x22c>
 800184e:	6f2b      	ldr	r3, [r5, #112]	; 0x70
 8001850:	f043 0304 	orr.w	r3, r3, #4
 8001854:	672b      	str	r3, [r5, #112]	; 0x70
 8001856:	e7d0      	b.n	80017fa <HAL_RCC_OscConfig+0x1ce>
 8001858:	6f2a      	ldr	r2, [r5, #112]	; 0x70
 800185a:	f022 0201 	bic.w	r2, r2, #1
 800185e:	672a      	str	r2, [r5, #112]	; 0x70
 8001860:	6f2a      	ldr	r2, [r5, #112]	; 0x70
 8001862:	f022 0204 	bic.w	r2, r2, #4
 8001866:	672a      	str	r2, [r5, #112]	; 0x70
 8001868:	2b00      	cmp	r3, #0
 800186a:	d1ca      	bne.n	8001802 <HAL_RCC_OscConfig+0x1d6>
 800186c:	f7ff fd52 	bl	8001314 <HAL_GetTick>
 8001870:	f241 3888 	movw	r8, #5000	; 0x1388
 8001874:	4606      	mov	r6, r0
 8001876:	6f2b      	ldr	r3, [r5, #112]	; 0x70
 8001878:	0798      	lsls	r0, r3, #30
 800187a:	d5cb      	bpl.n	8001814 <HAL_RCC_OscConfig+0x1e8>
 800187c:	f7ff fd4a 	bl	8001314 <HAL_GetTick>
 8001880:	1b80      	subs	r0, r0, r6
 8001882:	4540      	cmp	r0, r8
 8001884:	d9f7      	bls.n	8001876 <HAL_RCC_OscConfig+0x24a>
 8001886:	e715      	b.n	80016b4 <HAL_RCC_OscConfig+0x88>
 8001888:	f7ff fd44 	bl	8001314 <HAL_GetTick>
 800188c:	1b40      	subs	r0, r0, r5
 800188e:	4540      	cmp	r0, r8
 8001890:	d9bd      	bls.n	800180e <HAL_RCC_OscConfig+0x1e2>
 8001892:	e70f      	b.n	80016b4 <HAL_RCC_OscConfig+0x88>
 8001894:	40023800 	.word	0x40023800
 8001898:	42470000 	.word	0x42470000
 800189c:	40007000 	.word	0x40007000
 80018a0:	4d36      	ldr	r5, [pc, #216]	; (800197c <HAL_RCC_OscConfig+0x350>)
 80018a2:	68ab      	ldr	r3, [r5, #8]
 80018a4:	f003 030c 	and.w	r3, r3, #12
 80018a8:	2b08      	cmp	r3, #8
 80018aa:	d03d      	beq.n	8001928 <HAL_RCC_OscConfig+0x2fc>
 80018ac:	4b34      	ldr	r3, [pc, #208]	; (8001980 <HAL_RCC_OscConfig+0x354>)
 80018ae:	2200      	movs	r2, #0
 80018b0:	2802      	cmp	r0, #2
 80018b2:	661a      	str	r2, [r3, #96]	; 0x60
 80018b4:	d12b      	bne.n	800190e <HAL_RCC_OscConfig+0x2e2>
 80018b6:	f7ff fd2d 	bl	8001314 <HAL_GetTick>
 80018ba:	4606      	mov	r6, r0
 80018bc:	682b      	ldr	r3, [r5, #0]
 80018be:	0199      	lsls	r1, r3, #6
 80018c0:	d41f      	bmi.n	8001902 <HAL_RCC_OscConfig+0x2d6>
 80018c2:	e9d4 3207 	ldrd	r3, r2, [r4, #28]
 80018c6:	4313      	orrs	r3, r2
 80018c8:	6a62      	ldr	r2, [r4, #36]	; 0x24
 80018ca:	ea43 1382 	orr.w	r3, r3, r2, lsl #6
 80018ce:	6ae2      	ldr	r2, [r4, #44]	; 0x2c
 80018d0:	ea43 6302 	orr.w	r3, r3, r2, lsl #24
 80018d4:	6aa2      	ldr	r2, [r4, #40]	; 0x28
 80018d6:	0852      	lsrs	r2, r2, #1
 80018d8:	3a01      	subs	r2, #1
 80018da:	ea43 4302 	orr.w	r3, r3, r2, lsl #16
 80018de:	606b      	str	r3, [r5, #4]
 80018e0:	4b27      	ldr	r3, [pc, #156]	; (8001980 <HAL_RCC_OscConfig+0x354>)
 80018e2:	4d26      	ldr	r5, [pc, #152]	; (800197c <HAL_RCC_OscConfig+0x350>)
 80018e4:	2201      	movs	r2, #1
 80018e6:	661a      	str	r2, [r3, #96]	; 0x60
 80018e8:	f7ff fd14 	bl	8001314 <HAL_GetTick>
 80018ec:	4604      	mov	r4, r0
 80018ee:	682b      	ldr	r3, [r5, #0]
 80018f0:	019a      	lsls	r2, r3, #6
 80018f2:	f53f aeb1 	bmi.w	8001658 <HAL_RCC_OscConfig+0x2c>
 80018f6:	f7ff fd0d 	bl	8001314 <HAL_GetTick>
 80018fa:	1b00      	subs	r0, r0, r4
 80018fc:	2802      	cmp	r0, #2
 80018fe:	d9f6      	bls.n	80018ee <HAL_RCC_OscConfig+0x2c2>
 8001900:	e6d8      	b.n	80016b4 <HAL_RCC_OscConfig+0x88>
 8001902:	f7ff fd07 	bl	8001314 <HAL_GetTick>
 8001906:	1b80      	subs	r0, r0, r6
 8001908:	2802      	cmp	r0, #2
 800190a:	d9d7      	bls.n	80018bc <HAL_RCC_OscConfig+0x290>
 800190c:	e6d2      	b.n	80016b4 <HAL_RCC_OscConfig+0x88>
 800190e:	f7ff fd01 	bl	8001314 <HAL_GetTick>
 8001912:	4604      	mov	r4, r0
 8001914:	682b      	ldr	r3, [r5, #0]
 8001916:	019b      	lsls	r3, r3, #6
 8001918:	f57f ae9e 	bpl.w	8001658 <HAL_RCC_OscConfig+0x2c>
 800191c:	f7ff fcfa 	bl	8001314 <HAL_GetTick>
 8001920:	1b00      	subs	r0, r0, r4
 8001922:	2802      	cmp	r0, #2
 8001924:	d9f6      	bls.n	8001914 <HAL_RCC_OscConfig+0x2e8>
 8001926:	e6c5      	b.n	80016b4 <HAL_RCC_OscConfig+0x88>
 8001928:	2801      	cmp	r0, #1
 800192a:	f43f aec4 	beq.w	80016b6 <HAL_RCC_OscConfig+0x8a>
 800192e:	686b      	ldr	r3, [r5, #4]
 8001930:	69e2      	ldr	r2, [r4, #28]
 8001932:	f403 0180 	and.w	r1, r3, #4194304	; 0x400000
 8001936:	4291      	cmp	r1, r2
 8001938:	f47f aea5 	bne.w	8001686 <HAL_RCC_OscConfig+0x5a>
 800193c:	6a21      	ldr	r1, [r4, #32]
 800193e:	f003 023f 	and.w	r2, r3, #63	; 0x3f
 8001942:	428a      	cmp	r2, r1
 8001944:	f47f ae9f 	bne.w	8001686 <HAL_RCC_OscConfig+0x5a>
 8001948:	6a61      	ldr	r1, [r4, #36]	; 0x24
 800194a:	f647 72c0 	movw	r2, #32704	; 0x7fc0
 800194e:	401a      	ands	r2, r3
 8001950:	ebb2 1f81 	cmp.w	r2, r1, lsl #6
 8001954:	f47f ae97 	bne.w	8001686 <HAL_RCC_OscConfig+0x5a>
 8001958:	6aa2      	ldr	r2, [r4, #40]	; 0x28
 800195a:	0852      	lsrs	r2, r2, #1
 800195c:	f403 3140 	and.w	r1, r3, #196608	; 0x30000
 8001960:	3a01      	subs	r2, #1
 8001962:	ebb1 4f02 	cmp.w	r1, r2, lsl #16
 8001966:	f47f ae8e 	bne.w	8001686 <HAL_RCC_OscConfig+0x5a>
 800196a:	6ae2      	ldr	r2, [r4, #44]	; 0x2c
 800196c:	f003 6370 	and.w	r3, r3, #251658240	; 0xf000000
 8001970:	ebb3 6f02 	cmp.w	r3, r2, lsl #24
 8001974:	f43f ae70 	beq.w	8001658 <HAL_RCC_OscConfig+0x2c>
 8001978:	e685      	b.n	8001686 <HAL_RCC_OscConfig+0x5a>
 800197a:	bf00      	nop
 800197c:	40023800 	.word	0x40023800
 8001980:	42470000 	.word	0x42470000

08001984 <HAL_RCC_GetSysClockFreq>:
 8001984:	4913      	ldr	r1, [pc, #76]	; (80019d4 <HAL_RCC_GetSysClockFreq+0x50>)
 8001986:	b508      	push	{r3, lr}
 8001988:	688b      	ldr	r3, [r1, #8]
 800198a:	f003 030c 	and.w	r3, r3, #12
 800198e:	2b04      	cmp	r3, #4
 8001990:	d01c      	beq.n	80019cc <HAL_RCC_GetSysClockFreq+0x48>
 8001992:	2b08      	cmp	r3, #8
 8001994:	d11c      	bne.n	80019d0 <HAL_RCC_GetSysClockFreq+0x4c>
 8001996:	684a      	ldr	r2, [r1, #4]
 8001998:	684b      	ldr	r3, [r1, #4]
 800199a:	6849      	ldr	r1, [r1, #4]
 800199c:	f413 0380 	ands.w	r3, r3, #4194304	; 0x400000
 80019a0:	bf14      	ite	ne
 80019a2:	480d      	ldrne	r0, [pc, #52]	; (80019d8 <HAL_RCC_GetSysClockFreq+0x54>)
 80019a4:	480d      	ldreq	r0, [pc, #52]	; (80019dc <HAL_RCC_GetSysClockFreq+0x58>)
 80019a6:	f3c1 1188 	ubfx	r1, r1, #6, #9
 80019aa:	bf18      	it	ne
 80019ac:	2300      	movne	r3, #0
 80019ae:	f002 023f 	and.w	r2, r2, #63	; 0x3f
 80019b2:	fba1 0100 	umull	r0, r1, r1, r0
 80019b6:	f7fe fe27 	bl	8000608 <__aeabi_uldivmod>
 80019ba:	4b06      	ldr	r3, [pc, #24]	; (80019d4 <HAL_RCC_GetSysClockFreq+0x50>)
 80019bc:	685b      	ldr	r3, [r3, #4]
 80019be:	f3c3 4301 	ubfx	r3, r3, #16, #2
 80019c2:	3301      	adds	r3, #1
 80019c4:	005b      	lsls	r3, r3, #1
 80019c6:	fbb0 f0f3 	udiv	r0, r0, r3
 80019ca:	bd08      	pop	{r3, pc}
 80019cc:	4802      	ldr	r0, [pc, #8]	; (80019d8 <HAL_RCC_GetSysClockFreq+0x54>)
 80019ce:	e7fc      	b.n	80019ca <HAL_RCC_GetSysClockFreq+0x46>
 80019d0:	4802      	ldr	r0, [pc, #8]	; (80019dc <HAL_RCC_GetSysClockFreq+0x58>)
 80019d2:	e7fa      	b.n	80019ca <HAL_RCC_GetSysClockFreq+0x46>
 80019d4:	40023800 	.word	0x40023800
 80019d8:	017d7840 	.word	0x017d7840
 80019dc:	00f42400 	.word	0x00f42400

080019e0 <HAL_RCC_ClockConfig>:
 80019e0:	e92d 41f0 	stmdb	sp!, {r4, r5, r6, r7, r8, lr}
 80019e4:	460d      	mov	r5, r1
 80019e6:	4604      	mov	r4, r0
 80019e8:	b910      	cbnz	r0, 80019f0 <HAL_RCC_ClockConfig+0x10>
 80019ea:	2001      	movs	r0, #1
 80019ec:	e8bd 81f0 	ldmia.w	sp!, {r4, r5, r6, r7, r8, pc}
 80019f0:	4b43      	ldr	r3, [pc, #268]	; (8001b00 <HAL_RCC_ClockConfig+0x120>)
 80019f2:	681a      	ldr	r2, [r3, #0]
 80019f4:	f002 0207 	and.w	r2, r2, #7
 80019f8:	428a      	cmp	r2, r1
 80019fa:	d328      	bcc.n	8001a4e <HAL_RCC_ClockConfig+0x6e>
 80019fc:	6821      	ldr	r1, [r4, #0]
 80019fe:	078f      	lsls	r7, r1, #30
 8001a00:	d42d      	bmi.n	8001a5e <HAL_RCC_ClockConfig+0x7e>
 8001a02:	07c8      	lsls	r0, r1, #31
 8001a04:	d440      	bmi.n	8001a88 <HAL_RCC_ClockConfig+0xa8>
 8001a06:	4b3e      	ldr	r3, [pc, #248]	; (8001b00 <HAL_RCC_ClockConfig+0x120>)
 8001a08:	681a      	ldr	r2, [r3, #0]
 8001a0a:	f002 0207 	and.w	r2, r2, #7
 8001a0e:	42aa      	cmp	r2, r5
 8001a10:	d865      	bhi.n	8001ade <HAL_RCC_ClockConfig+0xfe>
 8001a12:	6822      	ldr	r2, [r4, #0]
 8001a14:	0751      	lsls	r1, r2, #29
 8001a16:	d46b      	bmi.n	8001af0 <HAL_RCC_ClockConfig+0x110>
 8001a18:	0713      	lsls	r3, r2, #28
 8001a1a:	d507      	bpl.n	8001a2c <HAL_RCC_ClockConfig+0x4c>
 8001a1c:	4a39      	ldr	r2, [pc, #228]	; (8001b04 <HAL_RCC_ClockConfig+0x124>)
 8001a1e:	6921      	ldr	r1, [r4, #16]
 8001a20:	6893      	ldr	r3, [r2, #8]
 8001a22:	f423 4360 	bic.w	r3, r3, #57344	; 0xe000
 8001a26:	ea43 03c1 	orr.w	r3, r3, r1, lsl #3
 8001a2a:	6093      	str	r3, [r2, #8]
 8001a2c:	f7ff ffaa 	bl	8001984 <HAL_RCC_GetSysClockFreq>
 8001a30:	4b34      	ldr	r3, [pc, #208]	; (8001b04 <HAL_RCC_ClockConfig+0x124>)
 8001a32:	4a35      	ldr	r2, [pc, #212]	; (8001b08 <HAL_RCC_ClockConfig+0x128>)
 8001a34:	689b      	ldr	r3, [r3, #8]
 8001a36:	f3c3 1303 	ubfx	r3, r3, #4, #4
 8001a3a:	5cd3      	ldrb	r3, [r2, r3]
 8001a3c:	40d8      	lsrs	r0, r3
 8001a3e:	4b33      	ldr	r3, [pc, #204]	; (8001b0c <HAL_RCC_ClockConfig+0x12c>)
 8001a40:	6018      	str	r0, [r3, #0]
 8001a42:	4b33      	ldr	r3, [pc, #204]	; (8001b10 <HAL_RCC_ClockConfig+0x130>)
 8001a44:	6818      	ldr	r0, [r3, #0]
 8001a46:	f7ff fc1b 	bl	8001280 <HAL_InitTick>
 8001a4a:	2000      	movs	r0, #0
 8001a4c:	e7ce      	b.n	80019ec <HAL_RCC_ClockConfig+0xc>
 8001a4e:	b2ca      	uxtb	r2, r1
 8001a50:	701a      	strb	r2, [r3, #0]
 8001a52:	681b      	ldr	r3, [r3, #0]
 8001a54:	f003 0307 	and.w	r3, r3, #7
 8001a58:	428b      	cmp	r3, r1
 8001a5a:	d1c6      	bne.n	80019ea <HAL_RCC_ClockConfig+0xa>
 8001a5c:	e7ce      	b.n	80019fc <HAL_RCC_ClockConfig+0x1c>
 8001a5e:	4b29      	ldr	r3, [pc, #164]	; (8001b04 <HAL_RCC_ClockConfig+0x124>)
 8001a60:	f011 0f04 	tst.w	r1, #4
 8001a64:	bf1e      	ittt	ne
 8001a66:	689a      	ldrne	r2, [r3, #8]
 8001a68:	f442 52e0 	orrne.w	r2, r2, #7168	; 0x1c00
 8001a6c:	609a      	strne	r2, [r3, #8]
 8001a6e:	070e      	lsls	r6, r1, #28
 8001a70:	bf42      	ittt	mi
 8001a72:	689a      	ldrmi	r2, [r3, #8]
 8001a74:	f442 4260 	orrmi.w	r2, r2, #57344	; 0xe000
 8001a78:	609a      	strmi	r2, [r3, #8]
 8001a7a:	689a      	ldr	r2, [r3, #8]
 8001a7c:	68a0      	ldr	r0, [r4, #8]
 8001a7e:	f022 02f0 	bic.w	r2, r2, #240	; 0xf0
 8001a82:	4302      	orrs	r2, r0
 8001a84:	609a      	str	r2, [r3, #8]
 8001a86:	e7bc      	b.n	8001a02 <HAL_RCC_ClockConfig+0x22>
 8001a88:	6862      	ldr	r2, [r4, #4]
 8001a8a:	4b1e      	ldr	r3, [pc, #120]	; (8001b04 <HAL_RCC_ClockConfig+0x124>)
 8001a8c:	2a01      	cmp	r2, #1
 8001a8e:	d11c      	bne.n	8001aca <HAL_RCC_ClockConfig+0xea>
 8001a90:	681b      	ldr	r3, [r3, #0]
 8001a92:	f413 3f00 	tst.w	r3, #131072	; 0x20000
 8001a96:	d0a8      	beq.n	80019ea <HAL_RCC_ClockConfig+0xa>
 8001a98:	4e1a      	ldr	r6, [pc, #104]	; (8001b04 <HAL_RCC_ClockConfig+0x124>)
 8001a9a:	68b3      	ldr	r3, [r6, #8]
 8001a9c:	f023 0303 	bic.w	r3, r3, #3
 8001aa0:	4313      	orrs	r3, r2
 8001aa2:	60b3      	str	r3, [r6, #8]
 8001aa4:	f7ff fc36 	bl	8001314 <HAL_GetTick>
 8001aa8:	f241 3888 	movw	r8, #5000	; 0x1388
 8001aac:	4607      	mov	r7, r0
 8001aae:	68b3      	ldr	r3, [r6, #8]
 8001ab0:	6862      	ldr	r2, [r4, #4]
 8001ab2:	f003 030c 	and.w	r3, r3, #12
 8001ab6:	ebb3 0f82 	cmp.w	r3, r2, lsl #2
 8001aba:	d0a4      	beq.n	8001a06 <HAL_RCC_ClockConfig+0x26>
 8001abc:	f7ff fc2a 	bl	8001314 <HAL_GetTick>
 8001ac0:	1bc0      	subs	r0, r0, r7
 8001ac2:	4540      	cmp	r0, r8
 8001ac4:	d9f3      	bls.n	8001aae <HAL_RCC_ClockConfig+0xce>
 8001ac6:	2003      	movs	r0, #3
 8001ac8:	e790      	b.n	80019ec <HAL_RCC_ClockConfig+0xc>
 8001aca:	1e91      	subs	r1, r2, #2
 8001acc:	2901      	cmp	r1, #1
 8001ace:	681b      	ldr	r3, [r3, #0]
 8001ad0:	d802      	bhi.n	8001ad8 <HAL_RCC_ClockConfig+0xf8>
 8001ad2:	f013 7f00 	tst.w	r3, #33554432	; 0x2000000
 8001ad6:	e7de      	b.n	8001a96 <HAL_RCC_ClockConfig+0xb6>
 8001ad8:	f013 0f02 	tst.w	r3, #2
 8001adc:	e7db      	b.n	8001a96 <HAL_RCC_ClockConfig+0xb6>
 8001ade:	b2ea      	uxtb	r2, r5
 8001ae0:	701a      	strb	r2, [r3, #0]
 8001ae2:	681b      	ldr	r3, [r3, #0]
 8001ae4:	f003 0307 	and.w	r3, r3, #7
 8001ae8:	42ab      	cmp	r3, r5
 8001aea:	f47f af7e 	bne.w	80019ea <HAL_RCC_ClockConfig+0xa>
 8001aee:	e790      	b.n	8001a12 <HAL_RCC_ClockConfig+0x32>
 8001af0:	4904      	ldr	r1, [pc, #16]	; (8001b04 <HAL_RCC_ClockConfig+0x124>)
 8001af2:	68e0      	ldr	r0, [r4, #12]
 8001af4:	688b      	ldr	r3, [r1, #8]
 8001af6:	f423 53e0 	bic.w	r3, r3, #7168	; 0x1c00
 8001afa:	4303      	orrs	r3, r0
 8001afc:	608b      	str	r3, [r1, #8]
 8001afe:	e78b      	b.n	8001a18 <HAL_RCC_ClockConfig+0x38>
 8001b00:	40023c00 	.word	0x40023c00
 8001b04:	40023800 	.word	0x40023800
 8001b08:	080030a7 	.word	0x080030a7
 8001b0c:	20000000 	.word	0x20000000
 8001b10:	20000008 	.word	0x20000008

08001b14 <HAL_RCC_GetPCLK1Freq>:
 8001b14:	4b04      	ldr	r3, [pc, #16]	; (8001b28 <HAL_RCC_GetPCLK1Freq+0x14>)
 8001b16:	4a05      	ldr	r2, [pc, #20]	; (8001b2c <HAL_RCC_GetPCLK1Freq+0x18>)
 8001b18:	689b      	ldr	r3, [r3, #8]
 8001b1a:	f3c3 2382 	ubfx	r3, r3, #10, #3
 8001b1e:	5cd3      	ldrb	r3, [r2, r3]
 8001b20:	4a03      	ldr	r2, [pc, #12]	; (8001b30 <HAL_RCC_GetPCLK1Freq+0x1c>)
 8001b22:	6810      	ldr	r0, [r2, #0]
 8001b24:	40d8      	lsrs	r0, r3
 8001b26:	4770      	bx	lr
 8001b28:	40023800 	.word	0x40023800
 8001b2c:	080030b7 	.word	0x080030b7
 8001b30:	20000000 	.word	0x20000000

08001b34 <HAL_RCC_GetPCLK2Freq>:
 8001b34:	4b04      	ldr	r3, [pc, #16]	; (8001b48 <HAL_RCC_GetPCLK2Freq+0x14>)
 8001b36:	4a05      	ldr	r2, [pc, #20]	; (8001b4c <HAL_RCC_GetPCLK2Freq+0x18>)
 8001b38:	689b      	ldr	r3, [r3, #8]
 8001b3a:	f3c3 3342 	ubfx	r3, r3, #13, #3
 8001b3e:	5cd3      	ldrb	r3, [r2, r3]
 8001b40:	4a03      	ldr	r2, [pc, #12]	; (8001b50 <HAL_RCC_GetPCLK2Freq+0x1c>)
 8001b42:	6810      	ldr	r0, [r2, #0]
 8001b44:	40d8      	lsrs	r0, r3
 8001b46:	4770      	bx	lr
 8001b48:	40023800 	.word	0x40023800
 8001b4c:	080030b7 	.word	0x080030b7
 8001b50:	20000000 	.word	0x20000000

08001b54 <HAL_TIM_Base_Start_IT>:
 8001b54:	f890 303d 	ldrb.w	r3, [r0, #61]	; 0x3d
 8001b58:	2b01      	cmp	r3, #1
 8001b5a:	d128      	bne.n	8001bae <HAL_TIM_Base_Start_IT+0x5a>
 8001b5c:	2302      	movs	r3, #2
 8001b5e:	f880 303d 	strb.w	r3, [r0, #61]	; 0x3d
 8001b62:	6803      	ldr	r3, [r0, #0]
 8001b64:	68da      	ldr	r2, [r3, #12]
 8001b66:	f042 0201 	orr.w	r2, r2, #1
 8001b6a:	60da      	str	r2, [r3, #12]
 8001b6c:	4a11      	ldr	r2, [pc, #68]	; (8001bb4 <HAL_TIM_Base_Start_IT+0x60>)
 8001b6e:	4293      	cmp	r3, r2
 8001b70:	d012      	beq.n	8001b98 <HAL_TIM_Base_Start_IT+0x44>
 8001b72:	f1b3 4f80 	cmp.w	r3, #1073741824	; 0x40000000
 8001b76:	d00f      	beq.n	8001b98 <HAL_TIM_Base_Start_IT+0x44>
 8001b78:	f5a2 427c 	sub.w	r2, r2, #64512	; 0xfc00
 8001b7c:	4293      	cmp	r3, r2
 8001b7e:	d00b      	beq.n	8001b98 <HAL_TIM_Base_Start_IT+0x44>
 8001b80:	f502 6280 	add.w	r2, r2, #1024	; 0x400
 8001b84:	4293      	cmp	r3, r2
 8001b86:	d007      	beq.n	8001b98 <HAL_TIM_Base_Start_IT+0x44>
 8001b88:	f502 6280 	add.w	r2, r2, #1024	; 0x400
 8001b8c:	4293      	cmp	r3, r2
 8001b8e:	d003      	beq.n	8001b98 <HAL_TIM_Base_Start_IT+0x44>
 8001b90:	f502 329a 	add.w	r2, r2, #78848	; 0x13400
 8001b94:	4293      	cmp	r3, r2
 8001b96:	d104      	bne.n	8001ba2 <HAL_TIM_Base_Start_IT+0x4e>
 8001b98:	689a      	ldr	r2, [r3, #8]
 8001b9a:	f002 0207 	and.w	r2, r2, #7
 8001b9e:	2a06      	cmp	r2, #6
 8001ba0:	d003      	beq.n	8001baa <HAL_TIM_Base_Start_IT+0x56>
 8001ba2:	681a      	ldr	r2, [r3, #0]
 8001ba4:	f042 0201 	orr.w	r2, r2, #1
 8001ba8:	601a      	str	r2, [r3, #0]
 8001baa:	2000      	movs	r0, #0
 8001bac:	4770      	bx	lr
 8001bae:	2001      	movs	r0, #1
 8001bb0:	4770      	bx	lr
 8001bb2:	bf00      	nop
 8001bb4:	40010000 	.word	0x40010000

08001bb8 <HAL_TIM_Encoder_Start>:
 8001bb8:	b530      	push	{r4, r5, lr}
 8001bba:	4603      	mov	r3, r0
 8001bbc:	f890 003e 	ldrb.w	r0, [r0, #62]	; 0x3e
 8001bc0:	f893 203f 	ldrb.w	r2, [r3, #63]	; 0x3f
 8001bc4:	f893 5042 	ldrb.w	r5, [r3, #66]	; 0x42
 8001bc8:	f893 4043 	ldrb.w	r4, [r3, #67]	; 0x43
 8001bcc:	b2c0      	uxtb	r0, r0
 8001bce:	b2d2      	uxtb	r2, r2
 8001bd0:	b2ed      	uxtb	r5, r5
 8001bd2:	b2e4      	uxtb	r4, r4
 8001bd4:	b9c1      	cbnz	r1, 8001c08 <HAL_TIM_Encoder_Start+0x50>
 8001bd6:	2801      	cmp	r0, #1
 8001bd8:	d145      	bne.n	8001c66 <HAL_TIM_Encoder_Start+0xae>
 8001bda:	2d01      	cmp	r5, #1
 8001bdc:	d113      	bne.n	8001c06 <HAL_TIM_Encoder_Start+0x4e>
 8001bde:	2202      	movs	r2, #2
 8001be0:	f883 203e 	strb.w	r2, [r3, #62]	; 0x3e
 8001be4:	f883 2042 	strb.w	r2, [r3, #66]	; 0x42
 8001be8:	681a      	ldr	r2, [r3, #0]
 8001bea:	6a11      	ldr	r1, [r2, #32]
 8001bec:	f021 0101 	bic.w	r1, r1, #1
 8001bf0:	6211      	str	r1, [r2, #32]
 8001bf2:	6a11      	ldr	r1, [r2, #32]
 8001bf4:	f041 0101 	orr.w	r1, r1, #1
 8001bf8:	6211      	str	r1, [r2, #32]
 8001bfa:	681a      	ldr	r2, [r3, #0]
 8001bfc:	6813      	ldr	r3, [r2, #0]
 8001bfe:	f043 0301 	orr.w	r3, r3, #1
 8001c02:	6013      	str	r3, [r2, #0]
 8001c04:	2000      	movs	r0, #0
 8001c06:	bd30      	pop	{r4, r5, pc}
 8001c08:	2904      	cmp	r1, #4
 8001c0a:	d111      	bne.n	8001c30 <HAL_TIM_Encoder_Start+0x78>
 8001c0c:	2a01      	cmp	r2, #1
 8001c0e:	d12a      	bne.n	8001c66 <HAL_TIM_Encoder_Start+0xae>
 8001c10:	2c01      	cmp	r4, #1
 8001c12:	d128      	bne.n	8001c66 <HAL_TIM_Encoder_Start+0xae>
 8001c14:	2202      	movs	r2, #2
 8001c16:	f883 203f 	strb.w	r2, [r3, #63]	; 0x3f
 8001c1a:	f883 2043 	strb.w	r2, [r3, #67]	; 0x43
 8001c1e:	681a      	ldr	r2, [r3, #0]
 8001c20:	6a11      	ldr	r1, [r2, #32]
 8001c22:	f021 0110 	bic.w	r1, r1, #16
 8001c26:	6211      	str	r1, [r2, #32]
 8001c28:	6a11      	ldr	r1, [r2, #32]
 8001c2a:	f041 0110 	orr.w	r1, r1, #16
 8001c2e:	e7e3      	b.n	8001bf8 <HAL_TIM_Encoder_Start+0x40>
 8001c30:	2801      	cmp	r0, #1
 8001c32:	d118      	bne.n	8001c66 <HAL_TIM_Encoder_Start+0xae>
 8001c34:	2a01      	cmp	r2, #1
 8001c36:	d1e6      	bne.n	8001c06 <HAL_TIM_Encoder_Start+0x4e>
 8001c38:	2d01      	cmp	r5, #1
 8001c3a:	d1e4      	bne.n	8001c06 <HAL_TIM_Encoder_Start+0x4e>
 8001c3c:	2c01      	cmp	r4, #1
 8001c3e:	d1e2      	bne.n	8001c06 <HAL_TIM_Encoder_Start+0x4e>
 8001c40:	2202      	movs	r2, #2
 8001c42:	f883 203e 	strb.w	r2, [r3, #62]	; 0x3e
 8001c46:	f883 203f 	strb.w	r2, [r3, #63]	; 0x3f
 8001c4a:	f883 2042 	strb.w	r2, [r3, #66]	; 0x42
 8001c4e:	f883 2043 	strb.w	r2, [r3, #67]	; 0x43
 8001c52:	681a      	ldr	r2, [r3, #0]
 8001c54:	6a11      	ldr	r1, [r2, #32]
 8001c56:	f021 0101 	bic.w	r1, r1, #1
 8001c5a:	6211      	str	r1, [r2, #32]
 8001c5c:	6a11      	ldr	r1, [r2, #32]
 8001c5e:	f041 0101 	orr.w	r1, r1, #1
 8001c62:	6211      	str	r1, [r2, #32]
 8001c64:	e7dc      	b.n	8001c20 <HAL_TIM_Encoder_Start+0x68>
 8001c66:	2001      	movs	r0, #1
 8001c68:	e7cd      	b.n	8001c06 <HAL_TIM_Encoder_Start+0x4e>

08001c6a <HAL_TIM_OC_DelayElapsedCallback>:
 8001c6a:	4770      	bx	lr

08001c6c <HAL_TIM_IC_CaptureCallback>:
 8001c6c:	4770      	bx	lr

08001c6e <HAL_TIM_PWM_PulseFinishedCallback>:
 8001c6e:	4770      	bx	lr

08001c70 <HAL_TIM_TriggerCallback>:
 8001c70:	4770      	bx	lr

08001c72 <HAL_TIM_IRQHandler>:
 8001c72:	6803      	ldr	r3, [r0, #0]
 8001c74:	b570      	push	{r4, r5, r6, lr}
 8001c76:	68dd      	ldr	r5, [r3, #12]
 8001c78:	691e      	ldr	r6, [r3, #16]
 8001c7a:	07b1      	lsls	r1, r6, #30
 8001c7c:	4604      	mov	r4, r0
 8001c7e:	d50d      	bpl.n	8001c9c <HAL_TIM_IRQHandler+0x2a>
 8001c80:	07aa      	lsls	r2, r5, #30
 8001c82:	d50b      	bpl.n	8001c9c <HAL_TIM_IRQHandler+0x2a>
 8001c84:	f06f 0202 	mvn.w	r2, #2
 8001c88:	611a      	str	r2, [r3, #16]
 8001c8a:	2201      	movs	r2, #1
 8001c8c:	7702      	strb	r2, [r0, #28]
 8001c8e:	699b      	ldr	r3, [r3, #24]
 8001c90:	079b      	lsls	r3, r3, #30
 8001c92:	d069      	beq.n	8001d68 <HAL_TIM_IRQHandler+0xf6>
 8001c94:	f7ff ffea 	bl	8001c6c <HAL_TIM_IC_CaptureCallback>
 8001c98:	2300      	movs	r3, #0
 8001c9a:	7723      	strb	r3, [r4, #28]
 8001c9c:	0771      	lsls	r1, r6, #29
 8001c9e:	d510      	bpl.n	8001cc2 <HAL_TIM_IRQHandler+0x50>
 8001ca0:	076a      	lsls	r2, r5, #29
 8001ca2:	d50e      	bpl.n	8001cc2 <HAL_TIM_IRQHandler+0x50>
 8001ca4:	6823      	ldr	r3, [r4, #0]
 8001ca6:	f06f 0204 	mvn.w	r2, #4
 8001caa:	611a      	str	r2, [r3, #16]
 8001cac:	2202      	movs	r2, #2
 8001cae:	7722      	strb	r2, [r4, #28]
 8001cb0:	699b      	ldr	r3, [r3, #24]
 8001cb2:	f413 7f40 	tst.w	r3, #768	; 0x300
 8001cb6:	4620      	mov	r0, r4
 8001cb8:	d05c      	beq.n	8001d74 <HAL_TIM_IRQHandler+0x102>
 8001cba:	f7ff ffd7 	bl	8001c6c <HAL_TIM_IC_CaptureCallback>
 8001cbe:	2300      	movs	r3, #0
 8001cc0:	7723      	strb	r3, [r4, #28]
 8001cc2:	0733      	lsls	r3, r6, #28
 8001cc4:	d50f      	bpl.n	8001ce6 <HAL_TIM_IRQHandler+0x74>
 8001cc6:	0728      	lsls	r0, r5, #28
 8001cc8:	d50d      	bpl.n	8001ce6 <HAL_TIM_IRQHandler+0x74>
 8001cca:	6823      	ldr	r3, [r4, #0]
 8001ccc:	f06f 0208 	mvn.w	r2, #8
 8001cd0:	611a      	str	r2, [r3, #16]
 8001cd2:	2204      	movs	r2, #4
 8001cd4:	7722      	strb	r2, [r4, #28]
 8001cd6:	69db      	ldr	r3, [r3, #28]
 8001cd8:	0799      	lsls	r1, r3, #30
 8001cda:	4620      	mov	r0, r4
 8001cdc:	d050      	beq.n	8001d80 <HAL_TIM_IRQHandler+0x10e>
 8001cde:	f7ff ffc5 	bl	8001c6c <HAL_TIM_IC_CaptureCallback>
 8001ce2:	2300      	movs	r3, #0
 8001ce4:	7723      	strb	r3, [r4, #28]
 8001ce6:	06f2      	lsls	r2, r6, #27
 8001ce8:	d510      	bpl.n	8001d0c <HAL_TIM_IRQHandler+0x9a>
 8001cea:	06eb      	lsls	r3, r5, #27
 8001cec:	d50e      	bpl.n	8001d0c <HAL_TIM_IRQHandler+0x9a>
 8001cee:	6823      	ldr	r3, [r4, #0]
 8001cf0:	f06f 0210 	mvn.w	r2, #16
 8001cf4:	611a      	str	r2, [r3, #16]
 8001cf6:	2208      	movs	r2, #8
 8001cf8:	7722      	strb	r2, [r4, #28]
 8001cfa:	69db      	ldr	r3, [r3, #28]
 8001cfc:	f413 7f40 	tst.w	r3, #768	; 0x300
 8001d00:	4620      	mov	r0, r4
 8001d02:	d043      	beq.n	8001d8c <HAL_TIM_IRQHandler+0x11a>
 8001d04:	f7ff ffb2 	bl	8001c6c <HAL_TIM_IC_CaptureCallback>
 8001d08:	2300      	movs	r3, #0
 8001d0a:	7723      	strb	r3, [r4, #28]
 8001d0c:	07f0      	lsls	r0, r6, #31
 8001d0e:	d508      	bpl.n	8001d22 <HAL_TIM_IRQHandler+0xb0>
 8001d10:	07e9      	lsls	r1, r5, #31
 8001d12:	d506      	bpl.n	8001d22 <HAL_TIM_IRQHandler+0xb0>
 8001d14:	6823      	ldr	r3, [r4, #0]
 8001d16:	f06f 0201 	mvn.w	r2, #1
 8001d1a:	611a      	str	r2, [r3, #16]
 8001d1c:	4620      	mov	r0, r4
 8001d1e:	f7fe fe3f 	bl	80009a0 <HAL_TIM_PeriodElapsedCallback>
 8001d22:	0632      	lsls	r2, r6, #24
 8001d24:	d508      	bpl.n	8001d38 <HAL_TIM_IRQHandler+0xc6>
 8001d26:	062b      	lsls	r3, r5, #24
 8001d28:	d506      	bpl.n	8001d38 <HAL_TIM_IRQHandler+0xc6>
 8001d2a:	6823      	ldr	r3, [r4, #0]
 8001d2c:	f06f 0280 	mvn.w	r2, #128	; 0x80
 8001d30:	611a      	str	r2, [r3, #16]
 8001d32:	4620      	mov	r0, r4
 8001d34:	f000 f9e1 	bl	80020fa <HAL_TIMEx_BreakCallback>
 8001d38:	0670      	lsls	r0, r6, #25
 8001d3a:	d508      	bpl.n	8001d4e <HAL_TIM_IRQHandler+0xdc>
 8001d3c:	0669      	lsls	r1, r5, #25
 8001d3e:	d506      	bpl.n	8001d4e <HAL_TIM_IRQHandler+0xdc>
 8001d40:	6823      	ldr	r3, [r4, #0]
 8001d42:	f06f 0240 	mvn.w	r2, #64	; 0x40
 8001d46:	611a      	str	r2, [r3, #16]
 8001d48:	4620      	mov	r0, r4
 8001d4a:	f7ff ff91 	bl	8001c70 <HAL_TIM_TriggerCallback>
 8001d4e:	06b2      	lsls	r2, r6, #26
 8001d50:	d522      	bpl.n	8001d98 <HAL_TIM_IRQHandler+0x126>
 8001d52:	06ab      	lsls	r3, r5, #26
 8001d54:	d520      	bpl.n	8001d98 <HAL_TIM_IRQHandler+0x126>
 8001d56:	6823      	ldr	r3, [r4, #0]
 8001d58:	f06f 0220 	mvn.w	r2, #32
 8001d5c:	4620      	mov	r0, r4
 8001d5e:	611a      	str	r2, [r3, #16]
 8001d60:	e8bd 4070 	ldmia.w	sp!, {r4, r5, r6, lr}
 8001d64:	f000 b9c8 	b.w	80020f8 <HAL_TIMEx_CommutCallback>
 8001d68:	f7ff ff7f 	bl	8001c6a <HAL_TIM_OC_DelayElapsedCallback>
 8001d6c:	4620      	mov	r0, r4
 8001d6e:	f7ff ff7e 	bl	8001c6e <HAL_TIM_PWM_PulseFinishedCallback>
 8001d72:	e791      	b.n	8001c98 <HAL_TIM_IRQHandler+0x26>
 8001d74:	f7ff ff79 	bl	8001c6a <HAL_TIM_OC_DelayElapsedCallback>
 8001d78:	4620      	mov	r0, r4
 8001d7a:	f7ff ff78 	bl	8001c6e <HAL_TIM_PWM_PulseFinishedCallback>
 8001d7e:	e79e      	b.n	8001cbe <HAL_TIM_IRQHandler+0x4c>
 8001d80:	f7ff ff73 	bl	8001c6a <HAL_TIM_OC_DelayElapsedCallback>
 8001d84:	4620      	mov	r0, r4
 8001d86:	f7ff ff72 	bl	8001c6e <HAL_TIM_PWM_PulseFinishedCallback>
 8001d8a:	e7aa      	b.n	8001ce2 <HAL_TIM_IRQHandler+0x70>
 8001d8c:	f7ff ff6d 	bl	8001c6a <HAL_TIM_OC_DelayElapsedCallback>
 8001d90:	4620      	mov	r0, r4
 8001d92:	f7ff ff6c 	bl	8001c6e <HAL_TIM_PWM_PulseFinishedCallback>
 8001d96:	e7b7      	b.n	8001d08 <HAL_TIM_IRQHandler+0x96>
 8001d98:	bd70      	pop	{r4, r5, r6, pc}
	...

08001d9c <TIM_Base_SetConfig>:
 8001d9c:	4a27      	ldr	r2, [pc, #156]	; (8001e3c <TIM_Base_SetConfig+0xa0>)
 8001d9e:	6803      	ldr	r3, [r0, #0]
 8001da0:	4290      	cmp	r0, r2
 8001da2:	d00e      	beq.n	8001dc2 <TIM_Base_SetConfig+0x26>
 8001da4:	f1b0 4f80 	cmp.w	r0, #1073741824	; 0x40000000
 8001da8:	d00b      	beq.n	8001dc2 <TIM_Base_SetConfig+0x26>
 8001daa:	f5a2 427c 	sub.w	r2, r2, #64512	; 0xfc00
 8001dae:	4290      	cmp	r0, r2
 8001db0:	d007      	beq.n	8001dc2 <TIM_Base_SetConfig+0x26>
 8001db2:	f502 6280 	add.w	r2, r2, #1024	; 0x400
 8001db6:	4290      	cmp	r0, r2
 8001db8:	d003      	beq.n	8001dc2 <TIM_Base_SetConfig+0x26>
 8001dba:	f502 6280 	add.w	r2, r2, #1024	; 0x400
 8001dbe:	4290      	cmp	r0, r2
 8001dc0:	d115      	bne.n	8001dee <TIM_Base_SetConfig+0x52>
 8001dc2:	684a      	ldr	r2, [r1, #4]
 8001dc4:	f023 0370 	bic.w	r3, r3, #112	; 0x70
 8001dc8:	4313      	orrs	r3, r2
 8001dca:	4a1c      	ldr	r2, [pc, #112]	; (8001e3c <TIM_Base_SetConfig+0xa0>)
 8001dcc:	4290      	cmp	r0, r2
 8001dce:	d019      	beq.n	8001e04 <TIM_Base_SetConfig+0x68>
 8001dd0:	f1b0 4f80 	cmp.w	r0, #1073741824	; 0x40000000
 8001dd4:	d016      	beq.n	8001e04 <TIM_Base_SetConfig+0x68>
 8001dd6:	f5a2 427c 	sub.w	r2, r2, #64512	; 0xfc00
 8001dda:	4290      	cmp	r0, r2
 8001ddc:	d012      	beq.n	8001e04 <TIM_Base_SetConfig+0x68>
 8001dde:	f502 6280 	add.w	r2, r2, #1024	; 0x400
 8001de2:	4290      	cmp	r0, r2
 8001de4:	d00e      	beq.n	8001e04 <TIM_Base_SetConfig+0x68>
 8001de6:	f502 6280 	add.w	r2, r2, #1024	; 0x400
 8001dea:	4290      	cmp	r0, r2
 8001dec:	d00a      	beq.n	8001e04 <TIM_Base_SetConfig+0x68>
 8001dee:	4a14      	ldr	r2, [pc, #80]	; (8001e40 <TIM_Base_SetConfig+0xa4>)
 8001df0:	4290      	cmp	r0, r2
 8001df2:	d007      	beq.n	8001e04 <TIM_Base_SetConfig+0x68>
 8001df4:	f502 6280 	add.w	r2, r2, #1024	; 0x400
 8001df8:	4290      	cmp	r0, r2
 8001dfa:	d003      	beq.n	8001e04 <TIM_Base_SetConfig+0x68>
 8001dfc:	f502 6280 	add.w	r2, r2, #1024	; 0x400
 8001e00:	4290      	cmp	r0, r2
 8001e02:	d103      	bne.n	8001e0c <TIM_Base_SetConfig+0x70>
 8001e04:	68ca      	ldr	r2, [r1, #12]
 8001e06:	f423 7340 	bic.w	r3, r3, #768	; 0x300
 8001e0a:	4313      	orrs	r3, r2
 8001e0c:	694a      	ldr	r2, [r1, #20]
 8001e0e:	f023 0380 	bic.w	r3, r3, #128	; 0x80
 8001e12:	4313      	orrs	r3, r2
 8001e14:	6003      	str	r3, [r0, #0]
 8001e16:	688b      	ldr	r3, [r1, #8]
 8001e18:	62c3      	str	r3, [r0, #44]	; 0x2c
 8001e1a:	680b      	ldr	r3, [r1, #0]
 8001e1c:	6283      	str	r3, [r0, #40]	; 0x28
 8001e1e:	4b07      	ldr	r3, [pc, #28]	; (8001e3c <TIM_Base_SetConfig+0xa0>)
 8001e20:	4298      	cmp	r0, r3
 8001e22:	bf04      	itt	eq
 8001e24:	690b      	ldreq	r3, [r1, #16]
 8001e26:	6303      	streq	r3, [r0, #48]	; 0x30
 8001e28:	2301      	movs	r3, #1
 8001e2a:	6143      	str	r3, [r0, #20]
 8001e2c:	6903      	ldr	r3, [r0, #16]
 8001e2e:	07db      	lsls	r3, r3, #31
 8001e30:	bf42      	ittt	mi
 8001e32:	6903      	ldrmi	r3, [r0, #16]
 8001e34:	f023 0301 	bicmi.w	r3, r3, #1
 8001e38:	6103      	strmi	r3, [r0, #16]
 8001e3a:	4770      	bx	lr
 8001e3c:	40010000 	.word	0x40010000
 8001e40:	40014000 	.word	0x40014000

08001e44 <HAL_TIM_Base_Init>:
 8001e44:	b510      	push	{r4, lr}
 8001e46:	4604      	mov	r4, r0
 8001e48:	b330      	cbz	r0, 8001e98 <HAL_TIM_Base_Init+0x54>
 8001e4a:	f890 303d 	ldrb.w	r3, [r0, #61]	; 0x3d
 8001e4e:	f003 02ff 	and.w	r2, r3, #255	; 0xff
 8001e52:	b91b      	cbnz	r3, 8001e5c <HAL_TIM_Base_Init+0x18>
 8001e54:	f880 203c 	strb.w	r2, [r0, #60]	; 0x3c
 8001e58:	f7ff f91c 	bl	8001094 <HAL_TIM_Base_MspInit>
 8001e5c:	2302      	movs	r3, #2
 8001e5e:	6820      	ldr	r0, [r4, #0]
 8001e60:	f884 303d 	strb.w	r3, [r4, #61]	; 0x3d
 8001e64:	1d21      	adds	r1, r4, #4
 8001e66:	f7ff ff99 	bl	8001d9c <TIM_Base_SetConfig>
 8001e6a:	2301      	movs	r3, #1
 8001e6c:	f884 3046 	strb.w	r3, [r4, #70]	; 0x46
 8001e70:	2000      	movs	r0, #0
 8001e72:	f884 303e 	strb.w	r3, [r4, #62]	; 0x3e
 8001e76:	f884 303f 	strb.w	r3, [r4, #63]	; 0x3f
 8001e7a:	f884 3040 	strb.w	r3, [r4, #64]	; 0x40
 8001e7e:	f884 3041 	strb.w	r3, [r4, #65]	; 0x41
 8001e82:	f884 3042 	strb.w	r3, [r4, #66]	; 0x42
 8001e86:	f884 3043 	strb.w	r3, [r4, #67]	; 0x43
 8001e8a:	f884 3044 	strb.w	r3, [r4, #68]	; 0x44
 8001e8e:	f884 3045 	strb.w	r3, [r4, #69]	; 0x45
 8001e92:	f884 303d 	strb.w	r3, [r4, #61]	; 0x3d
 8001e96:	bd10      	pop	{r4, pc}
 8001e98:	2001      	movs	r0, #1
 8001e9a:	e7fc      	b.n	8001e96 <HAL_TIM_Base_Init+0x52>

08001e9c <HAL_TIM_Encoder_Init>:
 8001e9c:	b5f8      	push	{r3, r4, r5, r6, r7, lr}
 8001e9e:	460d      	mov	r5, r1
 8001ea0:	4604      	mov	r4, r0
 8001ea2:	2800      	cmp	r0, #0
 8001ea4:	d04c      	beq.n	8001f40 <HAL_TIM_Encoder_Init+0xa4>
 8001ea6:	f890 303d 	ldrb.w	r3, [r0, #61]	; 0x3d
 8001eaa:	f003 02ff 	and.w	r2, r3, #255	; 0xff
 8001eae:	b91b      	cbnz	r3, 8001eb8 <HAL_TIM_Encoder_Init+0x1c>
 8001eb0:	f880 203c 	strb.w	r2, [r0, #60]	; 0x3c
 8001eb4:	f7ff f852 	bl	8000f5c <HAL_TIM_Encoder_MspInit>
 8001eb8:	4621      	mov	r1, r4
 8001eba:	2302      	movs	r3, #2
 8001ebc:	f884 303d 	strb.w	r3, [r4, #61]	; 0x3d
 8001ec0:	f851 0b04 	ldr.w	r0, [r1], #4
 8001ec4:	6883      	ldr	r3, [r0, #8]
 8001ec6:	f423 4380 	bic.w	r3, r3, #16384	; 0x4000
 8001eca:	f023 0307 	bic.w	r3, r3, #7
 8001ece:	6083      	str	r3, [r0, #8]
 8001ed0:	f7ff ff64 	bl	8001d9c <TIM_Base_SetConfig>
 8001ed4:	6881      	ldr	r1, [r0, #8]
 8001ed6:	682a      	ldr	r2, [r5, #0]
 8001ed8:	6983      	ldr	r3, [r0, #24]
 8001eda:	69ae      	ldr	r6, [r5, #24]
 8001edc:	6a07      	ldr	r7, [r0, #32]
 8001ede:	4311      	orrs	r1, r2
 8001ee0:	68aa      	ldr	r2, [r5, #8]
 8001ee2:	f423 7340 	bic.w	r3, r3, #768	; 0x300
 8001ee6:	f023 0303 	bic.w	r3, r3, #3
 8001eea:	ea42 2206 	orr.w	r2, r2, r6, lsl #8
 8001eee:	431a      	orrs	r2, r3
 8001ef0:	692b      	ldr	r3, [r5, #16]
 8001ef2:	69ee      	ldr	r6, [r5, #28]
 8001ef4:	011b      	lsls	r3, r3, #4
 8001ef6:	ea43 2306 	orr.w	r3, r3, r6, lsl #8
 8001efa:	68ee      	ldr	r6, [r5, #12]
 8001efc:	4333      	orrs	r3, r6
 8001efe:	6a2e      	ldr	r6, [r5, #32]
 8001f00:	f422 427c 	bic.w	r2, r2, #64512	; 0xfc00
 8001f04:	f022 02fc 	bic.w	r2, r2, #252	; 0xfc
 8001f08:	ea43 3306 	orr.w	r3, r3, r6, lsl #12
 8001f0c:	4313      	orrs	r3, r2
 8001f0e:	696e      	ldr	r6, [r5, #20]
 8001f10:	686a      	ldr	r2, [r5, #4]
 8001f12:	6081      	str	r1, [r0, #8]
 8001f14:	f027 07aa 	bic.w	r7, r7, #170	; 0xaa
 8001f18:	ea42 1206 	orr.w	r2, r2, r6, lsl #4
 8001f1c:	6183      	str	r3, [r0, #24]
 8001f1e:	4317      	orrs	r7, r2
 8001f20:	2301      	movs	r3, #1
 8001f22:	6207      	str	r7, [r0, #32]
 8001f24:	f884 3046 	strb.w	r3, [r4, #70]	; 0x46
 8001f28:	2000      	movs	r0, #0
 8001f2a:	f884 303e 	strb.w	r3, [r4, #62]	; 0x3e
 8001f2e:	f884 303f 	strb.w	r3, [r4, #63]	; 0x3f
 8001f32:	f884 3042 	strb.w	r3, [r4, #66]	; 0x42
 8001f36:	f884 3043 	strb.w	r3, [r4, #67]	; 0x43
 8001f3a:	f884 303d 	strb.w	r3, [r4, #61]	; 0x3d
 8001f3e:	bdf8      	pop	{r3, r4, r5, r6, r7, pc}
 8001f40:	2001      	movs	r0, #1
 8001f42:	e7fc      	b.n	8001f3e <HAL_TIM_Encoder_Init+0xa2>

08001f44 <TIM_ETR_SetConfig>:
 8001f44:	b510      	push	{r4, lr}
 8001f46:	6884      	ldr	r4, [r0, #8]
 8001f48:	4311      	orrs	r1, r2
 8001f4a:	f424 447f 	bic.w	r4, r4, #65280	; 0xff00
 8001f4e:	ea41 2303 	orr.w	r3, r1, r3, lsl #8
 8001f52:	4323      	orrs	r3, r4
 8001f54:	6083      	str	r3, [r0, #8]
 8001f56:	bd10      	pop	{r4, pc}

08001f58 <HAL_TIM_ConfigClockSource>:
 8001f58:	b538      	push	{r3, r4, r5, lr}
 8001f5a:	f890 303c 	ldrb.w	r3, [r0, #60]	; 0x3c
 8001f5e:	2b01      	cmp	r3, #1
 8001f60:	4604      	mov	r4, r0
 8001f62:	f04f 0302 	mov.w	r3, #2
 8001f66:	f000 808e 	beq.w	8002086 <HAL_TIM_ConfigClockSource+0x12e>
 8001f6a:	2201      	movs	r2, #1
 8001f6c:	f880 303d 	strb.w	r3, [r0, #61]	; 0x3d
 8001f70:	f880 203c 	strb.w	r2, [r0, #60]	; 0x3c
 8001f74:	6800      	ldr	r0, [r0, #0]
 8001f76:	6883      	ldr	r3, [r0, #8]
 8001f78:	f423 437f 	bic.w	r3, r3, #65280	; 0xff00
 8001f7c:	f023 0377 	bic.w	r3, r3, #119	; 0x77
 8001f80:	6083      	str	r3, [r0, #8]
 8001f82:	680b      	ldr	r3, [r1, #0]
 8001f84:	2b60      	cmp	r3, #96	; 0x60
 8001f86:	d04f      	beq.n	8002028 <HAL_TIM_ConfigClockSource+0xd0>
 8001f88:	d832      	bhi.n	8001ff0 <HAL_TIM_ConfigClockSource+0x98>
 8001f8a:	2b40      	cmp	r3, #64	; 0x40
 8001f8c:	d064      	beq.n	8002058 <HAL_TIM_ConfigClockSource+0x100>
 8001f8e:	d816      	bhi.n	8001fbe <HAL_TIM_ConfigClockSource+0x66>
 8001f90:	2b20      	cmp	r3, #32
 8001f92:	d00d      	beq.n	8001fb0 <HAL_TIM_ConfigClockSource+0x58>
 8001f94:	d80a      	bhi.n	8001fac <HAL_TIM_ConfigClockSource+0x54>
 8001f96:	f033 0110 	bics.w	r1, r3, #16
 8001f9a:	d009      	beq.n	8001fb0 <HAL_TIM_ConfigClockSource+0x58>
 8001f9c:	2301      	movs	r3, #1
 8001f9e:	f884 303d 	strb.w	r3, [r4, #61]	; 0x3d
 8001fa2:	2300      	movs	r3, #0
 8001fa4:	f884 303c 	strb.w	r3, [r4, #60]	; 0x3c
 8001fa8:	4610      	mov	r0, r2
 8001faa:	bd38      	pop	{r3, r4, r5, pc}
 8001fac:	2b30      	cmp	r3, #48	; 0x30
 8001fae:	d1f5      	bne.n	8001f9c <HAL_TIM_ConfigClockSource+0x44>
 8001fb0:	6882      	ldr	r2, [r0, #8]
 8001fb2:	f022 0270 	bic.w	r2, r2, #112	; 0x70
 8001fb6:	4313      	orrs	r3, r2
 8001fb8:	f043 0307 	orr.w	r3, r3, #7
 8001fbc:	e028      	b.n	8002010 <HAL_TIM_ConfigClockSource+0xb8>
 8001fbe:	2b50      	cmp	r3, #80	; 0x50
 8001fc0:	d1ec      	bne.n	8001f9c <HAL_TIM_ConfigClockSource+0x44>
 8001fc2:	684a      	ldr	r2, [r1, #4]
 8001fc4:	68cd      	ldr	r5, [r1, #12]
 8001fc6:	6a01      	ldr	r1, [r0, #32]
 8001fc8:	6a03      	ldr	r3, [r0, #32]
 8001fca:	f023 0301 	bic.w	r3, r3, #1
 8001fce:	6203      	str	r3, [r0, #32]
 8001fd0:	6983      	ldr	r3, [r0, #24]
 8001fd2:	f021 010a 	bic.w	r1, r1, #10
 8001fd6:	f023 03f0 	bic.w	r3, r3, #240	; 0xf0
 8001fda:	ea43 1305 	orr.w	r3, r3, r5, lsl #4
 8001fde:	430a      	orrs	r2, r1
 8001fe0:	6183      	str	r3, [r0, #24]
 8001fe2:	6202      	str	r2, [r0, #32]
 8001fe4:	6883      	ldr	r3, [r0, #8]
 8001fe6:	f023 0370 	bic.w	r3, r3, #112	; 0x70
 8001fea:	f043 0357 	orr.w	r3, r3, #87	; 0x57
 8001fee:	e00f      	b.n	8002010 <HAL_TIM_ConfigClockSource+0xb8>
 8001ff0:	f5b3 5f80 	cmp.w	r3, #4096	; 0x1000
 8001ff4:	d00d      	beq.n	8002012 <HAL_TIM_ConfigClockSource+0xba>
 8001ff6:	f5b3 5f00 	cmp.w	r3, #8192	; 0x2000
 8001ffa:	d00c      	beq.n	8002016 <HAL_TIM_ConfigClockSource+0xbe>
 8001ffc:	2b70      	cmp	r3, #112	; 0x70
 8001ffe:	d1cd      	bne.n	8001f9c <HAL_TIM_ConfigClockSource+0x44>
 8002000:	68cb      	ldr	r3, [r1, #12]
 8002002:	e9d1 2101 	ldrd	r2, r1, [r1, #4]
 8002006:	f7ff ff9d 	bl	8001f44 <TIM_ETR_SetConfig>
 800200a:	6883      	ldr	r3, [r0, #8]
 800200c:	f043 0377 	orr.w	r3, r3, #119	; 0x77
 8002010:	6083      	str	r3, [r0, #8]
 8002012:	2200      	movs	r2, #0
 8002014:	e7c2      	b.n	8001f9c <HAL_TIM_ConfigClockSource+0x44>
 8002016:	68cb      	ldr	r3, [r1, #12]
 8002018:	e9d1 2101 	ldrd	r2, r1, [r1, #4]
 800201c:	f7ff ff92 	bl	8001f44 <TIM_ETR_SetConfig>
 8002020:	6883      	ldr	r3, [r0, #8]
 8002022:	f443 4380 	orr.w	r3, r3, #16384	; 0x4000
 8002026:	e7f3      	b.n	8002010 <HAL_TIM_ConfigClockSource+0xb8>
 8002028:	6a03      	ldr	r3, [r0, #32]
 800202a:	6a02      	ldr	r2, [r0, #32]
 800202c:	684d      	ldr	r5, [r1, #4]
 800202e:	68c9      	ldr	r1, [r1, #12]
 8002030:	f022 0210 	bic.w	r2, r2, #16
 8002034:	6202      	str	r2, [r0, #32]
 8002036:	6982      	ldr	r2, [r0, #24]
 8002038:	f023 03a0 	bic.w	r3, r3, #160	; 0xa0
 800203c:	f422 4270 	bic.w	r2, r2, #61440	; 0xf000
 8002040:	ea43 1305 	orr.w	r3, r3, r5, lsl #4
 8002044:	ea42 3201 	orr.w	r2, r2, r1, lsl #12
 8002048:	6182      	str	r2, [r0, #24]
 800204a:	6203      	str	r3, [r0, #32]
 800204c:	6883      	ldr	r3, [r0, #8]
 800204e:	f023 0370 	bic.w	r3, r3, #112	; 0x70
 8002052:	f043 0367 	orr.w	r3, r3, #103	; 0x67
 8002056:	e7db      	b.n	8002010 <HAL_TIM_ConfigClockSource+0xb8>
 8002058:	684a      	ldr	r2, [r1, #4]
 800205a:	68cd      	ldr	r5, [r1, #12]
 800205c:	6a01      	ldr	r1, [r0, #32]
 800205e:	6a03      	ldr	r3, [r0, #32]
 8002060:	f023 0301 	bic.w	r3, r3, #1
 8002064:	6203      	str	r3, [r0, #32]
 8002066:	6983      	ldr	r3, [r0, #24]
 8002068:	f021 010a 	bic.w	r1, r1, #10
 800206c:	f023 03f0 	bic.w	r3, r3, #240	; 0xf0
 8002070:	ea43 1305 	orr.w	r3, r3, r5, lsl #4
 8002074:	430a      	orrs	r2, r1
 8002076:	6183      	str	r3, [r0, #24]
 8002078:	6202      	str	r2, [r0, #32]
 800207a:	6883      	ldr	r3, [r0, #8]
 800207c:	f023 0370 	bic.w	r3, r3, #112	; 0x70
 8002080:	f043 0347 	orr.w	r3, r3, #71	; 0x47
 8002084:	e7c4      	b.n	8002010 <HAL_TIM_ConfigClockSource+0xb8>
 8002086:	461a      	mov	r2, r3
 8002088:	e78e      	b.n	8001fa8 <HAL_TIM_ConfigClockSource+0x50>
	...

0800208c <HAL_TIMEx_MasterConfigSynchronization>:
 800208c:	b530      	push	{r4, r5, lr}
 800208e:	f890 303c 	ldrb.w	r3, [r0, #60]	; 0x3c
 8002092:	2b01      	cmp	r3, #1
 8002094:	f04f 0302 	mov.w	r3, #2
 8002098:	d02a      	beq.n	80020f0 <HAL_TIMEx_MasterConfigSynchronization+0x64>
 800209a:	f880 303d 	strb.w	r3, [r0, #61]	; 0x3d
 800209e:	6803      	ldr	r3, [r0, #0]
 80020a0:	680d      	ldr	r5, [r1, #0]
 80020a2:	685c      	ldr	r4, [r3, #4]
 80020a4:	689a      	ldr	r2, [r3, #8]
 80020a6:	f024 0470 	bic.w	r4, r4, #112	; 0x70
 80020aa:	432c      	orrs	r4, r5
 80020ac:	605c      	str	r4, [r3, #4]
 80020ae:	4c11      	ldr	r4, [pc, #68]	; (80020f4 <HAL_TIMEx_MasterConfigSynchronization+0x68>)
 80020b0:	42a3      	cmp	r3, r4
 80020b2:	d012      	beq.n	80020da <HAL_TIMEx_MasterConfigSynchronization+0x4e>
 80020b4:	f1b3 4f80 	cmp.w	r3, #1073741824	; 0x40000000
 80020b8:	d00f      	beq.n	80020da <HAL_TIMEx_MasterConfigSynchronization+0x4e>
 80020ba:	f5a4 447c 	sub.w	r4, r4, #64512	; 0xfc00
 80020be:	42a3      	cmp	r3, r4
 80020c0:	d00b      	beq.n	80020da <HAL_TIMEx_MasterConfigSynchronization+0x4e>
 80020c2:	f504 6480 	add.w	r4, r4, #1024	; 0x400
 80020c6:	42a3      	cmp	r3, r4
 80020c8:	d007      	beq.n	80020da <HAL_TIMEx_MasterConfigSynchronization+0x4e>
 80020ca:	f504 6480 	add.w	r4, r4, #1024	; 0x400
 80020ce:	42a3      	cmp	r3, r4
 80020d0:	d003      	beq.n	80020da <HAL_TIMEx_MasterConfigSynchronization+0x4e>
 80020d2:	f504 349a 	add.w	r4, r4, #78848	; 0x13400
 80020d6:	42a3      	cmp	r3, r4
 80020d8:	d104      	bne.n	80020e4 <HAL_TIMEx_MasterConfigSynchronization+0x58>
 80020da:	6849      	ldr	r1, [r1, #4]
 80020dc:	f022 0280 	bic.w	r2, r2, #128	; 0x80
 80020e0:	430a      	orrs	r2, r1
 80020e2:	609a      	str	r2, [r3, #8]
 80020e4:	2301      	movs	r3, #1
 80020e6:	f880 303d 	strb.w	r3, [r0, #61]	; 0x3d
 80020ea:	2300      	movs	r3, #0
 80020ec:	f880 303c 	strb.w	r3, [r0, #60]	; 0x3c
 80020f0:	4618      	mov	r0, r3
 80020f2:	bd30      	pop	{r4, r5, pc}
 80020f4:	40010000 	.word	0x40010000

080020f8 <HAL_TIMEx_CommutCallback>:
 80020f8:	4770      	bx	lr

080020fa <HAL_TIMEx_BreakCallback>:
 80020fa:	4770      	bx	lr

080020fc <UART_EndRxTransfer>:
 80020fc:	6802      	ldr	r2, [r0, #0]
 80020fe:	f102 030c 	add.w	r3, r2, #12
 8002102:	e853 3f00 	ldrex	r3, [r3]
 8002106:	f423 7390 	bic.w	r3, r3, #288	; 0x120
 800210a:	320c      	adds	r2, #12
 800210c:	e842 3100 	strex	r1, r3, [r2]
 8002110:	6802      	ldr	r2, [r0, #0]
 8002112:	2900      	cmp	r1, #0
 8002114:	d1f2      	bne.n	80020fc <UART_EndRxTransfer>
 8002116:	f102 0314 	add.w	r3, r2, #20
 800211a:	e853 3f00 	ldrex	r3, [r3]
 800211e:	f023 0301 	bic.w	r3, r3, #1
 8002122:	f102 0c14 	add.w	ip, r2, #20
 8002126:	e84c 3100 	strex	r1, r3, [ip]
 800212a:	2900      	cmp	r1, #0
 800212c:	d1f3      	bne.n	8002116 <UART_EndRxTransfer+0x1a>
 800212e:	6b03      	ldr	r3, [r0, #48]	; 0x30
 8002130:	2b01      	cmp	r3, #1
 8002132:	d10b      	bne.n	800214c <UART_EndRxTransfer+0x50>
 8002134:	f102 030c 	add.w	r3, r2, #12
 8002138:	e853 3f00 	ldrex	r3, [r3]
 800213c:	f023 0310 	bic.w	r3, r3, #16
 8002140:	f102 0c0c 	add.w	ip, r2, #12
 8002144:	e84c 3100 	strex	r1, r3, [ip]
 8002148:	2900      	cmp	r1, #0
 800214a:	d1f3      	bne.n	8002134 <UART_EndRxTransfer+0x38>
 800214c:	2320      	movs	r3, #32
 800214e:	f880 3042 	strb.w	r3, [r0, #66]	; 0x42
 8002152:	2300      	movs	r3, #0
 8002154:	6303      	str	r3, [r0, #48]	; 0x30
 8002156:	4770      	bx	lr

08002158 <UART_SetConfig>:
 8002158:	6802      	ldr	r2, [r0, #0]
 800215a:	68c1      	ldr	r1, [r0, #12]
 800215c:	6913      	ldr	r3, [r2, #16]
 800215e:	f423 5340 	bic.w	r3, r3, #12288	; 0x3000
 8002162:	430b      	orrs	r3, r1
 8002164:	b570      	push	{r4, r5, r6, lr}
 8002166:	6113      	str	r3, [r2, #16]
 8002168:	4605      	mov	r5, r0
 800216a:	6883      	ldr	r3, [r0, #8]
 800216c:	6900      	ldr	r0, [r0, #16]
 800216e:	68d1      	ldr	r1, [r2, #12]
 8002170:	4303      	orrs	r3, r0
 8002172:	6968      	ldr	r0, [r5, #20]
 8002174:	4303      	orrs	r3, r0
 8002176:	69e8      	ldr	r0, [r5, #28]
 8002178:	f421 4116 	bic.w	r1, r1, #38400	; 0x9600
 800217c:	f021 010c 	bic.w	r1, r1, #12
 8002180:	4303      	orrs	r3, r0
 8002182:	430b      	orrs	r3, r1
 8002184:	60d3      	str	r3, [r2, #12]
 8002186:	6953      	ldr	r3, [r2, #20]
 8002188:	69a9      	ldr	r1, [r5, #24]
 800218a:	f423 7340 	bic.w	r3, r3, #768	; 0x300
 800218e:	430b      	orrs	r3, r1
 8002190:	6153      	str	r3, [r2, #20]
 8002192:	4b1f      	ldr	r3, [pc, #124]	; (8002210 <UART_SetConfig+0xb8>)
 8002194:	429a      	cmp	r2, r3
 8002196:	d003      	beq.n	80021a0 <UART_SetConfig+0x48>
 8002198:	f503 6380 	add.w	r3, r3, #1024	; 0x400
 800219c:	429a      	cmp	r2, r3
 800219e:	d123      	bne.n	80021e8 <UART_SetConfig+0x90>
 80021a0:	f7ff fcc8 	bl	8001b34 <HAL_RCC_GetPCLK2Freq>
 80021a4:	69eb      	ldr	r3, [r5, #28]
 80021a6:	2119      	movs	r1, #25
 80021a8:	f5b3 4f00 	cmp.w	r3, #32768	; 0x8000
 80021ac:	e9d5 4600 	ldrd	r4, r6, [r5]
 80021b0:	fba0 0101 	umull	r0, r1, r0, r1
 80021b4:	d11b      	bne.n	80021ee <UART_SetConfig+0x96>
 80021b6:	19b2      	adds	r2, r6, r6
 80021b8:	f04f 0300 	mov.w	r3, #0
 80021bc:	415b      	adcs	r3, r3
 80021be:	f7fe fa23 	bl	8000608 <__aeabi_uldivmod>
 80021c2:	2264      	movs	r2, #100	; 0x64
 80021c4:	fbb0 f1f2 	udiv	r1, r0, r2
 80021c8:	fb02 0311 	mls	r3, r2, r1, r0
 80021cc:	00db      	lsls	r3, r3, #3
 80021ce:	3332      	adds	r3, #50	; 0x32
 80021d0:	fbb3 f3f2 	udiv	r3, r3, r2
 80021d4:	f003 0207 	and.w	r2, r3, #7
 80021d8:	005b      	lsls	r3, r3, #1
 80021da:	eb02 1201 	add.w	r2, r2, r1, lsl #4
 80021de:	f403 73f8 	and.w	r3, r3, #496	; 0x1f0
 80021e2:	4413      	add	r3, r2
 80021e4:	60a3      	str	r3, [r4, #8]
 80021e6:	bd70      	pop	{r4, r5, r6, pc}
 80021e8:	f7ff fc94 	bl	8001b14 <HAL_RCC_GetPCLK1Freq>
 80021ec:	e7da      	b.n	80021a4 <UART_SetConfig+0x4c>
 80021ee:	00b2      	lsls	r2, r6, #2
 80021f0:	0fb3      	lsrs	r3, r6, #30
 80021f2:	f7fe fa09 	bl	8000608 <__aeabi_uldivmod>
 80021f6:	2264      	movs	r2, #100	; 0x64
 80021f8:	fbb0 f1f2 	udiv	r1, r0, r2
 80021fc:	fb02 0311 	mls	r3, r2, r1, r0
 8002200:	011b      	lsls	r3, r3, #4
 8002202:	3332      	adds	r3, #50	; 0x32
 8002204:	fbb3 f3f2 	udiv	r3, r3, r2
 8002208:	eb03 1301 	add.w	r3, r3, r1, lsl #4
 800220c:	e7ea      	b.n	80021e4 <UART_SetConfig+0x8c>
 800220e:	bf00      	nop
 8002210:	40011000 	.word	0x40011000

08002214 <UART_WaitOnFlagUntilTimeout.constprop.0>:
 8002214:	b5f7      	push	{r0, r1, r2, r4, r5, r6, r7, lr}
 8002216:	4605      	mov	r5, r0
 8002218:	460c      	mov	r4, r1
 800221a:	4617      	mov	r7, r2
 800221c:	461e      	mov	r6, r3
 800221e:	682a      	ldr	r2, [r5, #0]
 8002220:	6813      	ldr	r3, [r2, #0]
 8002222:	ea34 0303 	bics.w	r3, r4, r3
 8002226:	d101      	bne.n	800222c <UART_WaitOnFlagUntilTimeout.constprop.0+0x18>
 8002228:	2000      	movs	r0, #0
 800222a:	e021      	b.n	8002270 <UART_WaitOnFlagUntilTimeout.constprop.0+0x5c>
 800222c:	1c70      	adds	r0, r6, #1
 800222e:	d0f7      	beq.n	8002220 <UART_WaitOnFlagUntilTimeout.constprop.0+0xc>
 8002230:	f7ff f870 	bl	8001314 <HAL_GetTick>
 8002234:	1bc0      	subs	r0, r0, r7
 8002236:	4286      	cmp	r6, r0
 8002238:	d31c      	bcc.n	8002274 <UART_WaitOnFlagUntilTimeout.constprop.0+0x60>
 800223a:	b1de      	cbz	r6, 8002274 <UART_WaitOnFlagUntilTimeout.constprop.0+0x60>
 800223c:	682b      	ldr	r3, [r5, #0]
 800223e:	68da      	ldr	r2, [r3, #12]
 8002240:	0751      	lsls	r1, r2, #29
 8002242:	d5ec      	bpl.n	800221e <UART_WaitOnFlagUntilTimeout.constprop.0+0xa>
 8002244:	2c80      	cmp	r4, #128	; 0x80
 8002246:	d0ea      	beq.n	800221e <UART_WaitOnFlagUntilTimeout.constprop.0+0xa>
 8002248:	2c40      	cmp	r4, #64	; 0x40
 800224a:	d0e8      	beq.n	800221e <UART_WaitOnFlagUntilTimeout.constprop.0+0xa>
 800224c:	681a      	ldr	r2, [r3, #0]
 800224e:	0712      	lsls	r2, r2, #28
 8002250:	d5e5      	bpl.n	800221e <UART_WaitOnFlagUntilTimeout.constprop.0+0xa>
 8002252:	2400      	movs	r4, #0
 8002254:	9401      	str	r4, [sp, #4]
 8002256:	681a      	ldr	r2, [r3, #0]
 8002258:	9201      	str	r2, [sp, #4]
 800225a:	685b      	ldr	r3, [r3, #4]
 800225c:	9301      	str	r3, [sp, #4]
 800225e:	4628      	mov	r0, r5
 8002260:	9b01      	ldr	r3, [sp, #4]
 8002262:	f7ff ff4b 	bl	80020fc <UART_EndRxTransfer>
 8002266:	2308      	movs	r3, #8
 8002268:	646b      	str	r3, [r5, #68]	; 0x44
 800226a:	f885 4040 	strb.w	r4, [r5, #64]	; 0x40
 800226e:	2001      	movs	r0, #1
 8002270:	b003      	add	sp, #12
 8002272:	bdf0      	pop	{r4, r5, r6, r7, pc}
 8002274:	2003      	movs	r0, #3
 8002276:	e7fb      	b.n	8002270 <UART_WaitOnFlagUntilTimeout.constprop.0+0x5c>

08002278 <HAL_UART_Init>:
 8002278:	b510      	push	{r4, lr}
 800227a:	4604      	mov	r4, r0
 800227c:	b348      	cbz	r0, 80022d2 <HAL_UART_Init+0x5a>
 800227e:	f890 3041 	ldrb.w	r3, [r0, #65]	; 0x41
 8002282:	f003 02ff 	and.w	r2, r3, #255	; 0xff
 8002286:	b91b      	cbnz	r3, 8002290 <HAL_UART_Init+0x18>
 8002288:	f880 2040 	strb.w	r2, [r0, #64]	; 0x40
 800228c:	f7fe ff24 	bl	80010d8 <HAL_UART_MspInit>
 8002290:	6822      	ldr	r2, [r4, #0]
 8002292:	2324      	movs	r3, #36	; 0x24
 8002294:	f884 3041 	strb.w	r3, [r4, #65]	; 0x41
 8002298:	68d3      	ldr	r3, [r2, #12]
 800229a:	f423 5300 	bic.w	r3, r3, #8192	; 0x2000
 800229e:	60d3      	str	r3, [r2, #12]
 80022a0:	4620      	mov	r0, r4
 80022a2:	f7ff ff59 	bl	8002158 <UART_SetConfig>
 80022a6:	6823      	ldr	r3, [r4, #0]
 80022a8:	691a      	ldr	r2, [r3, #16]
 80022aa:	f422 4290 	bic.w	r2, r2, #18432	; 0x4800
 80022ae:	611a      	str	r2, [r3, #16]
 80022b0:	695a      	ldr	r2, [r3, #20]
 80022b2:	f022 022a 	bic.w	r2, r2, #42	; 0x2a
 80022b6:	615a      	str	r2, [r3, #20]
 80022b8:	68da      	ldr	r2, [r3, #12]
 80022ba:	f442 5200 	orr.w	r2, r2, #8192	; 0x2000
 80022be:	60da      	str	r2, [r3, #12]
 80022c0:	2000      	movs	r0, #0
 80022c2:	2320      	movs	r3, #32
 80022c4:	6460      	str	r0, [r4, #68]	; 0x44
 80022c6:	f884 3041 	strb.w	r3, [r4, #65]	; 0x41
 80022ca:	f884 3042 	strb.w	r3, [r4, #66]	; 0x42
 80022ce:	6360      	str	r0, [r4, #52]	; 0x34
 80022d0:	bd10      	pop	{r4, pc}
 80022d2:	2001      	movs	r0, #1
 80022d4:	e7fc      	b.n	80022d0 <HAL_UART_Init+0x58>

080022d6 <HAL_UART_Transmit>:
 80022d6:	b5f7      	push	{r0, r1, r2, r4, r5, r6, r7, lr}
 80022d8:	4617      	mov	r7, r2
 80022da:	f890 2041 	ldrb.w	r2, [r0, #65]	; 0x41
 80022de:	9300      	str	r3, [sp, #0]
 80022e0:	2a20      	cmp	r2, #32
 80022e2:	4604      	mov	r4, r0
 80022e4:	460e      	mov	r6, r1
 80022e6:	d140      	bne.n	800236a <HAL_UART_Transmit+0x94>
 80022e8:	2900      	cmp	r1, #0
 80022ea:	d040      	beq.n	800236e <HAL_UART_Transmit+0x98>
 80022ec:	2f00      	cmp	r7, #0
 80022ee:	d03e      	beq.n	800236e <HAL_UART_Transmit+0x98>
 80022f0:	2221      	movs	r2, #33	; 0x21
 80022f2:	2500      	movs	r5, #0
 80022f4:	6445      	str	r5, [r0, #68]	; 0x44
 80022f6:	f880 2041 	strb.w	r2, [r0, #65]	; 0x41
 80022fa:	f7ff f80b 	bl	8001314 <HAL_GetTick>
 80022fe:	68a1      	ldr	r1, [r4, #8]
 8002300:	9b00      	ldr	r3, [sp, #0]
 8002302:	84a7      	strh	r7, [r4, #36]	; 0x24
 8002304:	f5b1 5f80 	cmp.w	r1, #4096	; 0x1000
 8002308:	4602      	mov	r2, r0
 800230a:	84e7      	strh	r7, [r4, #38]	; 0x26
 800230c:	d103      	bne.n	8002316 <HAL_UART_Transmit+0x40>
 800230e:	6921      	ldr	r1, [r4, #16]
 8002310:	b909      	cbnz	r1, 8002316 <HAL_UART_Transmit+0x40>
 8002312:	4635      	mov	r5, r6
 8002314:	460e      	mov	r6, r1
 8002316:	8ce1      	ldrh	r1, [r4, #38]	; 0x26
 8002318:	b289      	uxth	r1, r1
 800231a:	b949      	cbnz	r1, 8002330 <HAL_UART_Transmit+0x5a>
 800231c:	2140      	movs	r1, #64	; 0x40
 800231e:	4620      	mov	r0, r4
 8002320:	f7ff ff78 	bl	8002214 <UART_WaitOnFlagUntilTimeout.constprop.0>
 8002324:	2320      	movs	r3, #32
 8002326:	f884 3041 	strb.w	r3, [r4, #65]	; 0x41
 800232a:	b968      	cbnz	r0, 8002348 <HAL_UART_Transmit+0x72>
 800232c:	b003      	add	sp, #12
 800232e:	bdf0      	pop	{r4, r5, r6, r7, pc}
 8002330:	2180      	movs	r1, #128	; 0x80
 8002332:	4620      	mov	r0, r4
 8002334:	e9cd 2300 	strd	r2, r3, [sp]
 8002338:	f7ff ff6c 	bl	8002214 <UART_WaitOnFlagUntilTimeout.constprop.0>
 800233c:	e9dd 2300 	ldrd	r2, r3, [sp]
 8002340:	b120      	cbz	r0, 800234c <HAL_UART_Transmit+0x76>
 8002342:	2320      	movs	r3, #32
 8002344:	f884 3041 	strb.w	r3, [r4, #65]	; 0x41
 8002348:	2003      	movs	r0, #3
 800234a:	e7ef      	b.n	800232c <HAL_UART_Transmit+0x56>
 800234c:	6820      	ldr	r0, [r4, #0]
 800234e:	b94e      	cbnz	r6, 8002364 <HAL_UART_Transmit+0x8e>
 8002350:	f835 1b02 	ldrh.w	r1, [r5], #2
 8002354:	f3c1 0108 	ubfx	r1, r1, #0, #9
 8002358:	6041      	str	r1, [r0, #4]
 800235a:	8ce1      	ldrh	r1, [r4, #38]	; 0x26
 800235c:	3901      	subs	r1, #1
 800235e:	b289      	uxth	r1, r1
 8002360:	84e1      	strh	r1, [r4, #38]	; 0x26
 8002362:	e7d8      	b.n	8002316 <HAL_UART_Transmit+0x40>
 8002364:	f816 1b01 	ldrb.w	r1, [r6], #1
 8002368:	e7f6      	b.n	8002358 <HAL_UART_Transmit+0x82>
 800236a:	2002      	movs	r0, #2
 800236c:	e7de      	b.n	800232c <HAL_UART_Transmit+0x56>
 800236e:	2001      	movs	r0, #1
 8002370:	e7dc      	b.n	800232c <HAL_UART_Transmit+0x56>

08002372 <HAL_UART_TxCpltCallback>:
 8002372:	4770      	bx	lr

08002374 <HAL_UART_ErrorCallback>:
 8002374:	4770      	bx	lr

08002376 <UART_DMAAbortOnError>:
 8002376:	b508      	push	{r3, lr}
 8002378:	6b80      	ldr	r0, [r0, #56]	; 0x38
 800237a:	2300      	movs	r3, #0
 800237c:	85c3      	strh	r3, [r0, #46]	; 0x2e
 800237e:	84c3      	strh	r3, [r0, #38]	; 0x26
 8002380:	f7ff fff8 	bl	8002374 <HAL_UART_ErrorCallback>
 8002384:	bd08      	pop	{r3, pc}

08002386 <HAL_UARTEx_RxEventCallback>:
 8002386:	4770      	bx	lr

08002388 <UART_Receive_IT.isra.0>:
 8002388:	f890 3042 	ldrb.w	r3, [r0, #66]	; 0x42
 800238c:	2b22      	cmp	r3, #34	; 0x22
 800238e:	b507      	push	{r0, r1, r2, lr}
 8002390:	d142      	bne.n	8002418 <UART_Receive_IT.isra.0+0x90>
 8002392:	6881      	ldr	r1, [r0, #8]
 8002394:	6a83      	ldr	r3, [r0, #40]	; 0x28
 8002396:	6802      	ldr	r2, [r0, #0]
 8002398:	f5b1 5f80 	cmp.w	r1, #4096	; 0x1000
 800239c:	d13f      	bne.n	800241e <UART_Receive_IT.isra.0+0x96>
 800239e:	6901      	ldr	r1, [r0, #16]
 80023a0:	2900      	cmp	r1, #0
 80023a2:	d13f      	bne.n	8002424 <UART_Receive_IT.isra.0+0x9c>
 80023a4:	6852      	ldr	r2, [r2, #4]
 80023a6:	f3c2 0208 	ubfx	r2, r2, #0, #9
 80023aa:	f823 2b02 	strh.w	r2, [r3], #2
 80023ae:	6283      	str	r3, [r0, #40]	; 0x28
 80023b0:	8dc3      	ldrh	r3, [r0, #46]	; 0x2e
 80023b2:	3b01      	subs	r3, #1
 80023b4:	b29b      	uxth	r3, r3
 80023b6:	85c3      	strh	r3, [r0, #46]	; 0x2e
 80023b8:	2b00      	cmp	r3, #0
 80023ba:	d12d      	bne.n	8002418 <UART_Receive_IT.isra.0+0x90>
 80023bc:	6802      	ldr	r2, [r0, #0]
 80023be:	68d1      	ldr	r1, [r2, #12]
 80023c0:	f021 0120 	bic.w	r1, r1, #32
 80023c4:	60d1      	str	r1, [r2, #12]
 80023c6:	68d1      	ldr	r1, [r2, #12]
 80023c8:	f421 7180 	bic.w	r1, r1, #256	; 0x100
 80023cc:	60d1      	str	r1, [r2, #12]
 80023ce:	6951      	ldr	r1, [r2, #20]
 80023d0:	f021 0101 	bic.w	r1, r1, #1
 80023d4:	6151      	str	r1, [r2, #20]
 80023d6:	2220      	movs	r2, #32
 80023d8:	f880 2042 	strb.w	r2, [r0, #66]	; 0x42
 80023dc:	6343      	str	r3, [r0, #52]	; 0x34
 80023de:	6b02      	ldr	r2, [r0, #48]	; 0x30
 80023e0:	2a01      	cmp	r2, #1
 80023e2:	6802      	ldr	r2, [r0, #0]
 80023e4:	d128      	bne.n	8002438 <UART_Receive_IT.isra.0+0xb0>
 80023e6:	6303      	str	r3, [r0, #48]	; 0x30
 80023e8:	f102 030c 	add.w	r3, r2, #12
 80023ec:	e853 3f00 	ldrex	r3, [r3]
 80023f0:	f023 0310 	bic.w	r3, r3, #16
 80023f4:	f102 0c0c 	add.w	ip, r2, #12
 80023f8:	e84c 3100 	strex	r1, r3, [ip]
 80023fc:	2900      	cmp	r1, #0
 80023fe:	d1f3      	bne.n	80023e8 <UART_Receive_IT.isra.0+0x60>
 8002400:	6813      	ldr	r3, [r2, #0]
 8002402:	06db      	lsls	r3, r3, #27
 8002404:	d505      	bpl.n	8002412 <UART_Receive_IT.isra.0+0x8a>
 8002406:	9101      	str	r1, [sp, #4]
 8002408:	6813      	ldr	r3, [r2, #0]
 800240a:	9301      	str	r3, [sp, #4]
 800240c:	6853      	ldr	r3, [r2, #4]
 800240e:	9301      	str	r3, [sp, #4]
 8002410:	9b01      	ldr	r3, [sp, #4]
 8002412:	8d81      	ldrh	r1, [r0, #44]	; 0x2c
 8002414:	f7ff ffb7 	bl	8002386 <HAL_UARTEx_RxEventCallback>
 8002418:	b003      	add	sp, #12
 800241a:	f85d fb04 	ldr.w	pc, [sp], #4
 800241e:	b939      	cbnz	r1, 8002430 <UART_Receive_IT.isra.0+0xa8>
 8002420:	6901      	ldr	r1, [r0, #16]
 8002422:	b929      	cbnz	r1, 8002430 <UART_Receive_IT.isra.0+0xa8>
 8002424:	6852      	ldr	r2, [r2, #4]
 8002426:	b2d2      	uxtb	r2, r2
 8002428:	701a      	strb	r2, [r3, #0]
 800242a:	6a83      	ldr	r3, [r0, #40]	; 0x28
 800242c:	3301      	adds	r3, #1
 800242e:	e7be      	b.n	80023ae <UART_Receive_IT.isra.0+0x26>
 8002430:	6852      	ldr	r2, [r2, #4]
 8002432:	f002 027f 	and.w	r2, r2, #127	; 0x7f
 8002436:	e7f7      	b.n	8002428 <UART_Receive_IT.isra.0+0xa0>
 8002438:	f7fe fa64 	bl	8000904 <HAL_UART_RxCpltCallback>
 800243c:	e7ec      	b.n	8002418 <UART_Receive_IT.isra.0+0x90>
	...

08002440 <HAL_UART_IRQHandler>:
 8002440:	6803      	ldr	r3, [r0, #0]
 8002442:	681a      	ldr	r2, [r3, #0]
 8002444:	b573      	push	{r0, r1, r4, r5, r6, lr}
 8002446:	0716      	lsls	r6, r2, #28
 8002448:	68d9      	ldr	r1, [r3, #12]
 800244a:	695d      	ldr	r5, [r3, #20]
 800244c:	4604      	mov	r4, r0
 800244e:	d108      	bne.n	8002462 <HAL_UART_IRQHandler+0x22>
 8002450:	0696      	lsls	r6, r2, #26
 8002452:	d568      	bpl.n	8002526 <HAL_UART_IRQHandler+0xe6>
 8002454:	068d      	lsls	r5, r1, #26
 8002456:	d566      	bpl.n	8002526 <HAL_UART_IRQHandler+0xe6>
 8002458:	b002      	add	sp, #8
 800245a:	e8bd 4070 	ldmia.w	sp!, {r4, r5, r6, lr}
 800245e:	f7ff bf93 	b.w	8002388 <UART_Receive_IT.isra.0>
 8002462:	f005 0001 	and.w	r0, r5, #1
 8002466:	f401 7590 	and.w	r5, r1, #288	; 0x120
 800246a:	4305      	orrs	r5, r0
 800246c:	d05b      	beq.n	8002526 <HAL_UART_IRQHandler+0xe6>
 800246e:	07d6      	lsls	r6, r2, #31
 8002470:	d505      	bpl.n	800247e <HAL_UART_IRQHandler+0x3e>
 8002472:	05cd      	lsls	r5, r1, #23
 8002474:	bf42      	ittt	mi
 8002476:	6c63      	ldrmi	r3, [r4, #68]	; 0x44
 8002478:	f043 0301 	orrmi.w	r3, r3, #1
 800247c:	6463      	strmi	r3, [r4, #68]	; 0x44
 800247e:	0753      	lsls	r3, r2, #29
 8002480:	d504      	bpl.n	800248c <HAL_UART_IRQHandler+0x4c>
 8002482:	b118      	cbz	r0, 800248c <HAL_UART_IRQHandler+0x4c>
 8002484:	6c63      	ldr	r3, [r4, #68]	; 0x44
 8002486:	f043 0302 	orr.w	r3, r3, #2
 800248a:	6463      	str	r3, [r4, #68]	; 0x44
 800248c:	0796      	lsls	r6, r2, #30
 800248e:	d504      	bpl.n	800249a <HAL_UART_IRQHandler+0x5a>
 8002490:	b118      	cbz	r0, 800249a <HAL_UART_IRQHandler+0x5a>
 8002492:	6c63      	ldr	r3, [r4, #68]	; 0x44
 8002494:	f043 0304 	orr.w	r3, r3, #4
 8002498:	6463      	str	r3, [r4, #68]	; 0x44
 800249a:	0715      	lsls	r5, r2, #28
 800249c:	d507      	bpl.n	80024ae <HAL_UART_IRQHandler+0x6e>
 800249e:	f001 0320 	and.w	r3, r1, #32
 80024a2:	4303      	orrs	r3, r0
 80024a4:	bf1e      	ittt	ne
 80024a6:	6c63      	ldrne	r3, [r4, #68]	; 0x44
 80024a8:	f043 0308 	orrne.w	r3, r3, #8
 80024ac:	6463      	strne	r3, [r4, #68]	; 0x44
 80024ae:	6c63      	ldr	r3, [r4, #68]	; 0x44
 80024b0:	2b00      	cmp	r3, #0
 80024b2:	d032      	beq.n	800251a <HAL_UART_IRQHandler+0xda>
 80024b4:	0692      	lsls	r2, r2, #26
 80024b6:	d504      	bpl.n	80024c2 <HAL_UART_IRQHandler+0x82>
 80024b8:	068b      	lsls	r3, r1, #26
 80024ba:	d502      	bpl.n	80024c2 <HAL_UART_IRQHandler+0x82>
 80024bc:	4620      	mov	r0, r4
 80024be:	f7ff ff63 	bl	8002388 <UART_Receive_IT.isra.0>
 80024c2:	6826      	ldr	r6, [r4, #0]
 80024c4:	6973      	ldr	r3, [r6, #20]
 80024c6:	6c62      	ldr	r2, [r4, #68]	; 0x44
 80024c8:	f003 0340 	and.w	r3, r3, #64	; 0x40
 80024cc:	f002 0208 	and.w	r2, r2, #8
 80024d0:	ea53 0502 	orrs.w	r5, r3, r2
 80024d4:	4620      	mov	r0, r4
 80024d6:	d022      	beq.n	800251e <HAL_UART_IRQHandler+0xde>
 80024d8:	f7ff fe10 	bl	80020fc <UART_EndRxTransfer>
 80024dc:	6973      	ldr	r3, [r6, #20]
 80024de:	065e      	lsls	r6, r3, #25
 80024e0:	d518      	bpl.n	8002514 <HAL_UART_IRQHandler+0xd4>
 80024e2:	6822      	ldr	r2, [r4, #0]
 80024e4:	f102 0314 	add.w	r3, r2, #20
 80024e8:	e853 3f00 	ldrex	r3, [r3]
 80024ec:	f023 0340 	bic.w	r3, r3, #64	; 0x40
 80024f0:	3214      	adds	r2, #20
 80024f2:	e842 3100 	strex	r1, r3, [r2]
 80024f6:	2900      	cmp	r1, #0
 80024f8:	d1f3      	bne.n	80024e2 <HAL_UART_IRQHandler+0xa2>
 80024fa:	6be0      	ldr	r0, [r4, #60]	; 0x3c
 80024fc:	b150      	cbz	r0, 8002514 <HAL_UART_IRQHandler+0xd4>
 80024fe:	4b74      	ldr	r3, [pc, #464]	; (80026d0 <HAL_UART_IRQHandler+0x290>)
 8002500:	6503      	str	r3, [r0, #80]	; 0x50
 8002502:	f7fe ffb2 	bl	800146a <HAL_DMA_Abort_IT>
 8002506:	b140      	cbz	r0, 800251a <HAL_UART_IRQHandler+0xda>
 8002508:	6be0      	ldr	r0, [r4, #60]	; 0x3c
 800250a:	6d03      	ldr	r3, [r0, #80]	; 0x50
 800250c:	b002      	add	sp, #8
 800250e:	e8bd 4070 	ldmia.w	sp!, {r4, r5, r6, lr}
 8002512:	4718      	bx	r3
 8002514:	4620      	mov	r0, r4
 8002516:	f7ff ff2d 	bl	8002374 <HAL_UART_ErrorCallback>
 800251a:	b002      	add	sp, #8
 800251c:	bd70      	pop	{r4, r5, r6, pc}
 800251e:	f7ff ff29 	bl	8002374 <HAL_UART_ErrorCallback>
 8002522:	6465      	str	r5, [r4, #68]	; 0x44
 8002524:	e7f9      	b.n	800251a <HAL_UART_IRQHandler+0xda>
 8002526:	6b20      	ldr	r0, [r4, #48]	; 0x30
 8002528:	2801      	cmp	r0, #1
 800252a:	f040 8095 	bne.w	8002658 <HAL_UART_IRQHandler+0x218>
 800252e:	06d5      	lsls	r5, r2, #27
 8002530:	f140 8092 	bpl.w	8002658 <HAL_UART_IRQHandler+0x218>
 8002534:	06c8      	lsls	r0, r1, #27
 8002536:	f140 808f 	bpl.w	8002658 <HAL_UART_IRQHandler+0x218>
 800253a:	2200      	movs	r2, #0
 800253c:	9201      	str	r2, [sp, #4]
 800253e:	681a      	ldr	r2, [r3, #0]
 8002540:	9201      	str	r2, [sp, #4]
 8002542:	685a      	ldr	r2, [r3, #4]
 8002544:	9201      	str	r2, [sp, #4]
 8002546:	9a01      	ldr	r2, [sp, #4]
 8002548:	695a      	ldr	r2, [r3, #20]
 800254a:	0652      	lsls	r2, r2, #25
 800254c:	d54e      	bpl.n	80025ec <HAL_UART_IRQHandler+0x1ac>
 800254e:	6be1      	ldr	r1, [r4, #60]	; 0x3c
 8002550:	680a      	ldr	r2, [r1, #0]
 8002552:	6852      	ldr	r2, [r2, #4]
 8002554:	b292      	uxth	r2, r2
 8002556:	2a00      	cmp	r2, #0
 8002558:	d0df      	beq.n	800251a <HAL_UART_IRQHandler+0xda>
 800255a:	8da0      	ldrh	r0, [r4, #44]	; 0x2c
 800255c:	4290      	cmp	r0, r2
 800255e:	d9dc      	bls.n	800251a <HAL_UART_IRQHandler+0xda>
 8002560:	85e2      	strh	r2, [r4, #46]	; 0x2e
 8002562:	69ca      	ldr	r2, [r1, #28]
 8002564:	f5b2 7f80 	cmp.w	r2, #256	; 0x100
 8002568:	d036      	beq.n	80025d8 <HAL_UART_IRQHandler+0x198>
 800256a:	f103 020c 	add.w	r2, r3, #12
 800256e:	e852 2f00 	ldrex	r2, [r2]
 8002572:	f422 7280 	bic.w	r2, r2, #256	; 0x100
 8002576:	f103 000c 	add.w	r0, r3, #12
 800257a:	e840 2100 	strex	r1, r2, [r0]
 800257e:	2900      	cmp	r1, #0
 8002580:	d1f3      	bne.n	800256a <HAL_UART_IRQHandler+0x12a>
 8002582:	f103 0214 	add.w	r2, r3, #20
 8002586:	e852 2f00 	ldrex	r2, [r2]
 800258a:	f022 0201 	bic.w	r2, r2, #1
 800258e:	f103 0014 	add.w	r0, r3, #20
 8002592:	e840 2100 	strex	r1, r2, [r0]
 8002596:	2900      	cmp	r1, #0
 8002598:	d1f3      	bne.n	8002582 <HAL_UART_IRQHandler+0x142>
 800259a:	f103 0214 	add.w	r2, r3, #20
 800259e:	e852 2f00 	ldrex	r2, [r2]
 80025a2:	f022 0240 	bic.w	r2, r2, #64	; 0x40
 80025a6:	f103 0014 	add.w	r0, r3, #20
 80025aa:	e840 2100 	strex	r1, r2, [r0]
 80025ae:	2900      	cmp	r1, #0
 80025b0:	d1f3      	bne.n	800259a <HAL_UART_IRQHandler+0x15a>
 80025b2:	2220      	movs	r2, #32
 80025b4:	f884 2042 	strb.w	r2, [r4, #66]	; 0x42
 80025b8:	6321      	str	r1, [r4, #48]	; 0x30
 80025ba:	f103 020c 	add.w	r2, r3, #12
 80025be:	e852 2f00 	ldrex	r2, [r2]
 80025c2:	f022 0210 	bic.w	r2, r2, #16
 80025c6:	f103 000c 	add.w	r0, r3, #12
 80025ca:	e840 2100 	strex	r1, r2, [r0]
 80025ce:	2900      	cmp	r1, #0
 80025d0:	d1f3      	bne.n	80025ba <HAL_UART_IRQHandler+0x17a>
 80025d2:	6be0      	ldr	r0, [r4, #60]	; 0x3c
 80025d4:	f7fe ff0a 	bl	80013ec <HAL_DMA_Abort>
 80025d8:	2302      	movs	r3, #2
 80025da:	6363      	str	r3, [r4, #52]	; 0x34
 80025dc:	8de3      	ldrh	r3, [r4, #46]	; 0x2e
 80025de:	8da1      	ldrh	r1, [r4, #44]	; 0x2c
 80025e0:	1ac9      	subs	r1, r1, r3
 80025e2:	b289      	uxth	r1, r1
 80025e4:	4620      	mov	r0, r4
 80025e6:	f7ff fece 	bl	8002386 <HAL_UARTEx_RxEventCallback>
 80025ea:	e796      	b.n	800251a <HAL_UART_IRQHandler+0xda>
 80025ec:	8de2      	ldrh	r2, [r4, #46]	; 0x2e
 80025ee:	8de0      	ldrh	r0, [r4, #46]	; 0x2e
 80025f0:	8da1      	ldrh	r1, [r4, #44]	; 0x2c
 80025f2:	b280      	uxth	r0, r0
 80025f4:	b292      	uxth	r2, r2
 80025f6:	2800      	cmp	r0, #0
 80025f8:	d08f      	beq.n	800251a <HAL_UART_IRQHandler+0xda>
 80025fa:	1a89      	subs	r1, r1, r2
 80025fc:	b289      	uxth	r1, r1
 80025fe:	2900      	cmp	r1, #0
 8002600:	d08b      	beq.n	800251a <HAL_UART_IRQHandler+0xda>
 8002602:	f103 020c 	add.w	r2, r3, #12
 8002606:	e852 2f00 	ldrex	r2, [r2]
 800260a:	f422 7290 	bic.w	r2, r2, #288	; 0x120
 800260e:	f103 050c 	add.w	r5, r3, #12
 8002612:	e845 2000 	strex	r0, r2, [r5]
 8002616:	2800      	cmp	r0, #0
 8002618:	d1f3      	bne.n	8002602 <HAL_UART_IRQHandler+0x1c2>
 800261a:	f103 0214 	add.w	r2, r3, #20
 800261e:	e852 2f00 	ldrex	r2, [r2]
 8002622:	f022 0201 	bic.w	r2, r2, #1
 8002626:	f103 0514 	add.w	r5, r3, #20
 800262a:	e845 2000 	strex	r0, r2, [r5]
 800262e:	2800      	cmp	r0, #0
 8002630:	d1f3      	bne.n	800261a <HAL_UART_IRQHandler+0x1da>
 8002632:	2220      	movs	r2, #32
 8002634:	f884 2042 	strb.w	r2, [r4, #66]	; 0x42
 8002638:	6320      	str	r0, [r4, #48]	; 0x30
 800263a:	f103 020c 	add.w	r2, r3, #12
 800263e:	e852 2f00 	ldrex	r2, [r2]
 8002642:	f022 0210 	bic.w	r2, r2, #16
 8002646:	f103 050c 	add.w	r5, r3, #12
 800264a:	e845 2000 	strex	r0, r2, [r5]
 800264e:	2800      	cmp	r0, #0
 8002650:	d1f3      	bne.n	800263a <HAL_UART_IRQHandler+0x1fa>
 8002652:	2302      	movs	r3, #2
 8002654:	6363      	str	r3, [r4, #52]	; 0x34
 8002656:	e7c5      	b.n	80025e4 <HAL_UART_IRQHandler+0x1a4>
 8002658:	0616      	lsls	r6, r2, #24
 800265a:	d528      	bpl.n	80026ae <HAL_UART_IRQHandler+0x26e>
 800265c:	060d      	lsls	r5, r1, #24
 800265e:	d526      	bpl.n	80026ae <HAL_UART_IRQHandler+0x26e>
 8002660:	f894 2041 	ldrb.w	r2, [r4, #65]	; 0x41
 8002664:	2a21      	cmp	r2, #33	; 0x21
 8002666:	f47f af58 	bne.w	800251a <HAL_UART_IRQHandler+0xda>
 800266a:	68a1      	ldr	r1, [r4, #8]
 800266c:	6a22      	ldr	r2, [r4, #32]
 800266e:	f5b1 5f80 	cmp.w	r1, #4096	; 0x1000
 8002672:	d117      	bne.n	80026a4 <HAL_UART_IRQHandler+0x264>
 8002674:	6921      	ldr	r1, [r4, #16]
 8002676:	b9a9      	cbnz	r1, 80026a4 <HAL_UART_IRQHandler+0x264>
 8002678:	f832 1b02 	ldrh.w	r1, [r2], #2
 800267c:	f3c1 0108 	ubfx	r1, r1, #0, #9
 8002680:	6059      	str	r1, [r3, #4]
 8002682:	6222      	str	r2, [r4, #32]
 8002684:	8ce2      	ldrh	r2, [r4, #38]	; 0x26
 8002686:	3a01      	subs	r2, #1
 8002688:	b292      	uxth	r2, r2
 800268a:	84e2      	strh	r2, [r4, #38]	; 0x26
 800268c:	2a00      	cmp	r2, #0
 800268e:	f47f af44 	bne.w	800251a <HAL_UART_IRQHandler+0xda>
 8002692:	68da      	ldr	r2, [r3, #12]
 8002694:	f022 0280 	bic.w	r2, r2, #128	; 0x80
 8002698:	60da      	str	r2, [r3, #12]
 800269a:	68da      	ldr	r2, [r3, #12]
 800269c:	f042 0240 	orr.w	r2, r2, #64	; 0x40
 80026a0:	60da      	str	r2, [r3, #12]
 80026a2:	e73a      	b.n	800251a <HAL_UART_IRQHandler+0xda>
 80026a4:	1c51      	adds	r1, r2, #1
 80026a6:	6221      	str	r1, [r4, #32]
 80026a8:	7812      	ldrb	r2, [r2, #0]
 80026aa:	605a      	str	r2, [r3, #4]
 80026ac:	e7ea      	b.n	8002684 <HAL_UART_IRQHandler+0x244>
 80026ae:	0650      	lsls	r0, r2, #25
 80026b0:	f57f af33 	bpl.w	800251a <HAL_UART_IRQHandler+0xda>
 80026b4:	064a      	lsls	r2, r1, #25
 80026b6:	f57f af30 	bpl.w	800251a <HAL_UART_IRQHandler+0xda>
 80026ba:	68da      	ldr	r2, [r3, #12]
 80026bc:	f022 0240 	bic.w	r2, r2, #64	; 0x40
 80026c0:	60da      	str	r2, [r3, #12]
 80026c2:	2320      	movs	r3, #32
 80026c4:	f884 3041 	strb.w	r3, [r4, #65]	; 0x41
 80026c8:	4620      	mov	r0, r4
 80026ca:	f7ff fe52 	bl	8002372 <HAL_UART_TxCpltCallback>
 80026ce:	e724      	b.n	800251a <HAL_UART_IRQHandler+0xda>
 80026d0:	08002377 	.word	0x08002377

080026d4 <UART_Start_Receive_IT>:
 80026d4:	85c2      	strh	r2, [r0, #46]	; 0x2e
 80026d6:	2300      	movs	r3, #0
 80026d8:	8582      	strh	r2, [r0, #44]	; 0x2c
 80026da:	6902      	ldr	r2, [r0, #16]
 80026dc:	6443      	str	r3, [r0, #68]	; 0x44
 80026de:	2322      	movs	r3, #34	; 0x22
 80026e0:	f880 3042 	strb.w	r3, [r0, #66]	; 0x42
 80026e4:	6281      	str	r1, [r0, #40]	; 0x28
 80026e6:	6803      	ldr	r3, [r0, #0]
 80026e8:	b11a      	cbz	r2, 80026f2 <UART_Start_Receive_IT+0x1e>
 80026ea:	68da      	ldr	r2, [r3, #12]
 80026ec:	f442 7280 	orr.w	r2, r2, #256	; 0x100
 80026f0:	60da      	str	r2, [r3, #12]
 80026f2:	695a      	ldr	r2, [r3, #20]
 80026f4:	f042 0201 	orr.w	r2, r2, #1
 80026f8:	615a      	str	r2, [r3, #20]
 80026fa:	68da      	ldr	r2, [r3, #12]
 80026fc:	f042 0220 	orr.w	r2, r2, #32
 8002700:	60da      	str	r2, [r3, #12]
 8002702:	2000      	movs	r0, #0
 8002704:	4770      	bx	lr

08002706 <HAL_UART_Receive_IT>:
 8002706:	b470      	push	{r4, r5, r6}
 8002708:	f890 6042 	ldrb.w	r6, [r0, #66]	; 0x42
 800270c:	2e20      	cmp	r6, #32
 800270e:	d106      	bne.n	800271e <HAL_UART_Receive_IT+0x18>
 8002710:	b141      	cbz	r1, 8002724 <HAL_UART_Receive_IT+0x1e>
 8002712:	b13a      	cbz	r2, 8002724 <HAL_UART_Receive_IT+0x1e>
 8002714:	2400      	movs	r4, #0
 8002716:	6304      	str	r4, [r0, #48]	; 0x30
 8002718:	bc70      	pop	{r4, r5, r6}
 800271a:	f7ff bfdb 	b.w	80026d4 <UART_Start_Receive_IT>
 800271e:	2002      	movs	r0, #2
 8002720:	bc70      	pop	{r4, r5, r6}
 8002722:	4770      	bx	lr
 8002724:	2001      	movs	r0, #1
 8002726:	e7fb      	b.n	8002720 <HAL_UART_Receive_IT+0x1a>

08002728 <siprintf>:
 8002728:	b40e      	push	{r1, r2, r3}
 800272a:	b500      	push	{lr}
 800272c:	b09c      	sub	sp, #112	; 0x70
 800272e:	ab1d      	add	r3, sp, #116	; 0x74
 8002730:	9002      	str	r0, [sp, #8]
 8002732:	9006      	str	r0, [sp, #24]
 8002734:	f06f 4100 	mvn.w	r1, #2147483648	; 0x80000000
 8002738:	4809      	ldr	r0, [pc, #36]	; (8002760 <siprintf+0x38>)
 800273a:	9107      	str	r1, [sp, #28]
 800273c:	9104      	str	r1, [sp, #16]
 800273e:	4909      	ldr	r1, [pc, #36]	; (8002764 <siprintf+0x3c>)
 8002740:	f853 2b04 	ldr.w	r2, [r3], #4
 8002744:	9105      	str	r1, [sp, #20]
 8002746:	6800      	ldr	r0, [r0, #0]
 8002748:	9301      	str	r3, [sp, #4]
 800274a:	a902      	add	r1, sp, #8
 800274c:	f000 f992 	bl	8002a74 <_svfiprintf_r>
 8002750:	9b02      	ldr	r3, [sp, #8]
 8002752:	2200      	movs	r2, #0
 8002754:	701a      	strb	r2, [r3, #0]
 8002756:	b01c      	add	sp, #112	; 0x70
 8002758:	f85d eb04 	ldr.w	lr, [sp], #4
 800275c:	b003      	add	sp, #12
 800275e:	4770      	bx	lr
 8002760:	20000058 	.word	0x20000058
 8002764:	ffff0208 	.word	0xffff0208

08002768 <memset>:
 8002768:	4402      	add	r2, r0
 800276a:	4603      	mov	r3, r0
 800276c:	4293      	cmp	r3, r2
 800276e:	d100      	bne.n	8002772 <memset+0xa>
 8002770:	4770      	bx	lr
 8002772:	f803 1b01 	strb.w	r1, [r3], #1
 8002776:	e7f9      	b.n	800276c <memset+0x4>

08002778 <__errno>:
 8002778:	4b01      	ldr	r3, [pc, #4]	; (8002780 <__errno+0x8>)
 800277a:	6818      	ldr	r0, [r3, #0]
 800277c:	4770      	bx	lr
 800277e:	bf00      	nop
 8002780:	20000058 	.word	0x20000058

08002784 <__libc_init_array>:
 8002784:	b570      	push	{r4, r5, r6, lr}
 8002786:	4d0d      	ldr	r5, [pc, #52]	; (80027bc <__libc_init_array+0x38>)
 8002788:	4c0d      	ldr	r4, [pc, #52]	; (80027c0 <__libc_init_array+0x3c>)
 800278a:	1b64      	subs	r4, r4, r5
 800278c:	10a4      	asrs	r4, r4, #2
 800278e:	2600      	movs	r6, #0
 8002790:	42a6      	cmp	r6, r4
 8002792:	d109      	bne.n	80027a8 <__libc_init_array+0x24>
 8002794:	4d0b      	ldr	r5, [pc, #44]	; (80027c4 <__libc_init_array+0x40>)
 8002796:	4c0c      	ldr	r4, [pc, #48]	; (80027c8 <__libc_init_array+0x44>)
 8002798:	f000 fc6a 	bl	8003070 <_init>
 800279c:	1b64      	subs	r4, r4, r5
 800279e:	10a4      	asrs	r4, r4, #2
 80027a0:	2600      	movs	r6, #0
 80027a2:	42a6      	cmp	r6, r4
 80027a4:	d105      	bne.n	80027b2 <__libc_init_array+0x2e>
 80027a6:	bd70      	pop	{r4, r5, r6, pc}
 80027a8:	f855 3b04 	ldr.w	r3, [r5], #4
 80027ac:	4798      	blx	r3
 80027ae:	3601      	adds	r6, #1
 80027b0:	e7ee      	b.n	8002790 <__libc_init_array+0xc>
 80027b2:	f855 3b04 	ldr.w	r3, [r5], #4
 80027b6:	4798      	blx	r3
 80027b8:	3601      	adds	r6, #1
 80027ba:	e7f2      	b.n	80027a2 <__libc_init_array+0x1e>
 80027bc:	080030fc 	.word	0x080030fc
 80027c0:	080030fc 	.word	0x080030fc
 80027c4:	080030fc 	.word	0x080030fc
 80027c8:	08003100 	.word	0x08003100

080027cc <__retarget_lock_acquire_recursive>:
 80027cc:	4770      	bx	lr

080027ce <__retarget_lock_release_recursive>:
 80027ce:	4770      	bx	lr

080027d0 <_free_r>:
 80027d0:	b537      	push	{r0, r1, r2, r4, r5, lr}
 80027d2:	2900      	cmp	r1, #0
 80027d4:	d044      	beq.n	8002860 <_free_r+0x90>
 80027d6:	f851 3c04 	ldr.w	r3, [r1, #-4]
 80027da:	9001      	str	r0, [sp, #4]
 80027dc:	2b00      	cmp	r3, #0
 80027de:	f1a1 0404 	sub.w	r4, r1, #4
 80027e2:	bfb8      	it	lt
 80027e4:	18e4      	addlt	r4, r4, r3
 80027e6:	f000 f8df 	bl	80029a8 <__malloc_lock>
 80027ea:	4a1e      	ldr	r2, [pc, #120]	; (8002864 <_free_r+0x94>)
 80027ec:	9801      	ldr	r0, [sp, #4]
 80027ee:	6813      	ldr	r3, [r2, #0]
 80027f0:	b933      	cbnz	r3, 8002800 <_free_r+0x30>
 80027f2:	6063      	str	r3, [r4, #4]
 80027f4:	6014      	str	r4, [r2, #0]
 80027f6:	b003      	add	sp, #12
 80027f8:	e8bd 4030 	ldmia.w	sp!, {r4, r5, lr}
 80027fc:	f000 b8da 	b.w	80029b4 <__malloc_unlock>
 8002800:	42a3      	cmp	r3, r4
 8002802:	d908      	bls.n	8002816 <_free_r+0x46>
 8002804:	6825      	ldr	r5, [r4, #0]
 8002806:	1961      	adds	r1, r4, r5
 8002808:	428b      	cmp	r3, r1
 800280a:	bf01      	itttt	eq
 800280c:	6819      	ldreq	r1, [r3, #0]
 800280e:	685b      	ldreq	r3, [r3, #4]
 8002810:	1949      	addeq	r1, r1, r5
 8002812:	6021      	streq	r1, [r4, #0]
 8002814:	e7ed      	b.n	80027f2 <_free_r+0x22>
 8002816:	461a      	mov	r2, r3
 8002818:	685b      	ldr	r3, [r3, #4]
 800281a:	b10b      	cbz	r3, 8002820 <_free_r+0x50>
 800281c:	42a3      	cmp	r3, r4
 800281e:	d9fa      	bls.n	8002816 <_free_r+0x46>
 8002820:	6811      	ldr	r1, [r2, #0]
 8002822:	1855      	adds	r5, r2, r1
 8002824:	42a5      	cmp	r5, r4
 8002826:	d10b      	bne.n	8002840 <_free_r+0x70>
 8002828:	6824      	ldr	r4, [r4, #0]
 800282a:	4421      	add	r1, r4
 800282c:	1854      	adds	r4, r2, r1
 800282e:	42a3      	cmp	r3, r4
 8002830:	6011      	str	r1, [r2, #0]
 8002832:	d1e0      	bne.n	80027f6 <_free_r+0x26>
 8002834:	681c      	ldr	r4, [r3, #0]
 8002836:	685b      	ldr	r3, [r3, #4]
 8002838:	6053      	str	r3, [r2, #4]
 800283a:	440c      	add	r4, r1
 800283c:	6014      	str	r4, [r2, #0]
 800283e:	e7da      	b.n	80027f6 <_free_r+0x26>
 8002840:	d902      	bls.n	8002848 <_free_r+0x78>
 8002842:	230c      	movs	r3, #12
 8002844:	6003      	str	r3, [r0, #0]
 8002846:	e7d6      	b.n	80027f6 <_free_r+0x26>
 8002848:	6825      	ldr	r5, [r4, #0]
 800284a:	1961      	adds	r1, r4, r5
 800284c:	428b      	cmp	r3, r1
 800284e:	bf04      	itt	eq
 8002850:	6819      	ldreq	r1, [r3, #0]
 8002852:	685b      	ldreq	r3, [r3, #4]
 8002854:	6063      	str	r3, [r4, #4]
 8002856:	bf04      	itt	eq
 8002858:	1949      	addeq	r1, r1, r5
 800285a:	6021      	streq	r1, [r4, #0]
 800285c:	6054      	str	r4, [r2, #4]
 800285e:	e7ca      	b.n	80027f6 <_free_r+0x26>
 8002860:	b003      	add	sp, #12
 8002862:	bd30      	pop	{r4, r5, pc}
 8002864:	200004c0 	.word	0x200004c0

08002868 <sbrk_aligned>:
 8002868:	b570      	push	{r4, r5, r6, lr}
 800286a:	4e0e      	ldr	r6, [pc, #56]	; (80028a4 <sbrk_aligned+0x3c>)
 800286c:	460c      	mov	r4, r1
 800286e:	6831      	ldr	r1, [r6, #0]
 8002870:	4605      	mov	r5, r0
 8002872:	b911      	cbnz	r1, 800287a <sbrk_aligned+0x12>
 8002874:	f000 fba6 	bl	8002fc4 <_sbrk_r>
 8002878:	6030      	str	r0, [r6, #0]
 800287a:	4621      	mov	r1, r4
 800287c:	4628      	mov	r0, r5
 800287e:	f000 fba1 	bl	8002fc4 <_sbrk_r>
 8002882:	1c43      	adds	r3, r0, #1
 8002884:	d00a      	beq.n	800289c <sbrk_aligned+0x34>
 8002886:	1cc4      	adds	r4, r0, #3
 8002888:	f024 0403 	bic.w	r4, r4, #3
 800288c:	42a0      	cmp	r0, r4
 800288e:	d007      	beq.n	80028a0 <sbrk_aligned+0x38>
 8002890:	1a21      	subs	r1, r4, r0
 8002892:	4628      	mov	r0, r5
 8002894:	f000 fb96 	bl	8002fc4 <_sbrk_r>
 8002898:	3001      	adds	r0, #1
 800289a:	d101      	bne.n	80028a0 <sbrk_aligned+0x38>
 800289c:	f04f 34ff 	mov.w	r4, #4294967295
 80028a0:	4620      	mov	r0, r4
 80028a2:	bd70      	pop	{r4, r5, r6, pc}
 80028a4:	200004c4 	.word	0x200004c4

080028a8 <_malloc_r>:
 80028a8:	e92d 43f8 	stmdb	sp!, {r3, r4, r5, r6, r7, r8, r9, lr}
 80028ac:	1ccd      	adds	r5, r1, #3
 80028ae:	f025 0503 	bic.w	r5, r5, #3
 80028b2:	3508      	adds	r5, #8
 80028b4:	2d0c      	cmp	r5, #12
 80028b6:	bf38      	it	cc
 80028b8:	250c      	movcc	r5, #12
 80028ba:	2d00      	cmp	r5, #0
 80028bc:	4607      	mov	r7, r0
 80028be:	db01      	blt.n	80028c4 <_malloc_r+0x1c>
 80028c0:	42a9      	cmp	r1, r5
 80028c2:	d905      	bls.n	80028d0 <_malloc_r+0x28>
 80028c4:	230c      	movs	r3, #12
 80028c6:	603b      	str	r3, [r7, #0]
 80028c8:	2600      	movs	r6, #0
 80028ca:	4630      	mov	r0, r6
 80028cc:	e8bd 83f8 	ldmia.w	sp!, {r3, r4, r5, r6, r7, r8, r9, pc}
 80028d0:	f8df 80d0 	ldr.w	r8, [pc, #208]	; 80029a4 <_malloc_r+0xfc>
 80028d4:	f000 f868 	bl	80029a8 <__malloc_lock>
 80028d8:	f8d8 3000 	ldr.w	r3, [r8]
 80028dc:	461c      	mov	r4, r3
 80028de:	bb5c      	cbnz	r4, 8002938 <_malloc_r+0x90>
 80028e0:	4629      	mov	r1, r5
 80028e2:	4638      	mov	r0, r7
 80028e4:	f7ff ffc0 	bl	8002868 <sbrk_aligned>
 80028e8:	1c43      	adds	r3, r0, #1
 80028ea:	4604      	mov	r4, r0
 80028ec:	d155      	bne.n	800299a <_malloc_r+0xf2>
 80028ee:	f8d8 4000 	ldr.w	r4, [r8]
 80028f2:	4626      	mov	r6, r4
 80028f4:	2e00      	cmp	r6, #0
 80028f6:	d145      	bne.n	8002984 <_malloc_r+0xdc>
 80028f8:	2c00      	cmp	r4, #0
 80028fa:	d048      	beq.n	800298e <_malloc_r+0xe6>
 80028fc:	6823      	ldr	r3, [r4, #0]
 80028fe:	4631      	mov	r1, r6
 8002900:	4638      	mov	r0, r7
 8002902:	eb04 0903 	add.w	r9, r4, r3
 8002906:	f000 fb5d 	bl	8002fc4 <_sbrk_r>
 800290a:	4581      	cmp	r9, r0
 800290c:	d13f      	bne.n	800298e <_malloc_r+0xe6>
 800290e:	6821      	ldr	r1, [r4, #0]
 8002910:	1a6d      	subs	r5, r5, r1
 8002912:	4629      	mov	r1, r5
 8002914:	4638      	mov	r0, r7
 8002916:	f7ff ffa7 	bl	8002868 <sbrk_aligned>
 800291a:	3001      	adds	r0, #1
 800291c:	d037      	beq.n	800298e <_malloc_r+0xe6>
 800291e:	6823      	ldr	r3, [r4, #0]
 8002920:	442b      	add	r3, r5
 8002922:	6023      	str	r3, [r4, #0]
 8002924:	f8d8 3000 	ldr.w	r3, [r8]
 8002928:	2b00      	cmp	r3, #0
 800292a:	d038      	beq.n	800299e <_malloc_r+0xf6>
 800292c:	685a      	ldr	r2, [r3, #4]
 800292e:	42a2      	cmp	r2, r4
 8002930:	d12b      	bne.n	800298a <_malloc_r+0xe2>
 8002932:	2200      	movs	r2, #0
 8002934:	605a      	str	r2, [r3, #4]
 8002936:	e00f      	b.n	8002958 <_malloc_r+0xb0>
 8002938:	6822      	ldr	r2, [r4, #0]
 800293a:	1b52      	subs	r2, r2, r5
 800293c:	d41f      	bmi.n	800297e <_malloc_r+0xd6>
 800293e:	2a0b      	cmp	r2, #11
 8002940:	d917      	bls.n	8002972 <_malloc_r+0xca>
 8002942:	1961      	adds	r1, r4, r5
 8002944:	42a3      	cmp	r3, r4
 8002946:	6025      	str	r5, [r4, #0]
 8002948:	bf18      	it	ne
 800294a:	6059      	strne	r1, [r3, #4]
 800294c:	6863      	ldr	r3, [r4, #4]
 800294e:	bf08      	it	eq
 8002950:	f8c8 1000 	streq.w	r1, [r8]
 8002954:	5162      	str	r2, [r4, r5]
 8002956:	604b      	str	r3, [r1, #4]
 8002958:	4638      	mov	r0, r7
 800295a:	f104 060b 	add.w	r6, r4, #11
 800295e:	f000 f829 	bl	80029b4 <__malloc_unlock>
 8002962:	f026 0607 	bic.w	r6, r6, #7
 8002966:	1d23      	adds	r3, r4, #4
 8002968:	1af2      	subs	r2, r6, r3
 800296a:	d0ae      	beq.n	80028ca <_malloc_r+0x22>
 800296c:	1b9b      	subs	r3, r3, r6
 800296e:	50a3      	str	r3, [r4, r2]
 8002970:	e7ab      	b.n	80028ca <_malloc_r+0x22>
 8002972:	42a3      	cmp	r3, r4
 8002974:	6862      	ldr	r2, [r4, #4]
 8002976:	d1dd      	bne.n	8002934 <_malloc_r+0x8c>
 8002978:	f8c8 2000 	str.w	r2, [r8]
 800297c:	e7ec      	b.n	8002958 <_malloc_r+0xb0>
 800297e:	4623      	mov	r3, r4
 8002980:	6864      	ldr	r4, [r4, #4]
 8002982:	e7ac      	b.n	80028de <_malloc_r+0x36>
 8002984:	4634      	mov	r4, r6
 8002986:	6876      	ldr	r6, [r6, #4]
 8002988:	e7b4      	b.n	80028f4 <_malloc_r+0x4c>
 800298a:	4613      	mov	r3, r2
 800298c:	e7cc      	b.n	8002928 <_malloc_r+0x80>
 800298e:	230c      	movs	r3, #12
 8002990:	603b      	str	r3, [r7, #0]
 8002992:	4638      	mov	r0, r7
 8002994:	f000 f80e 	bl	80029b4 <__malloc_unlock>
 8002998:	e797      	b.n	80028ca <_malloc_r+0x22>
 800299a:	6025      	str	r5, [r4, #0]
 800299c:	e7dc      	b.n	8002958 <_malloc_r+0xb0>
 800299e:	605b      	str	r3, [r3, #4]
 80029a0:	deff      	udf	#255	; 0xff
 80029a2:	bf00      	nop
 80029a4:	200004c0 	.word	0x200004c0

080029a8 <__malloc_lock>:
 80029a8:	4801      	ldr	r0, [pc, #4]	; (80029b0 <__malloc_lock+0x8>)
 80029aa:	f7ff bf0f 	b.w	80027cc <__retarget_lock_acquire_recursive>
 80029ae:	bf00      	nop
 80029b0:	200004bc 	.word	0x200004bc

080029b4 <__malloc_unlock>:
 80029b4:	4801      	ldr	r0, [pc, #4]	; (80029bc <__malloc_unlock+0x8>)
 80029b6:	f7ff bf0a 	b.w	80027ce <__retarget_lock_release_recursive>
 80029ba:	bf00      	nop
 80029bc:	200004bc 	.word	0x200004bc

080029c0 <__ssputs_r>:
 80029c0:	e92d 47f0 	stmdb	sp!, {r4, r5, r6, r7, r8, r9, sl, lr}
 80029c4:	688e      	ldr	r6, [r1, #8]
 80029c6:	461f      	mov	r7, r3
 80029c8:	42be      	cmp	r6, r7
 80029ca:	680b      	ldr	r3, [r1, #0]
 80029cc:	4682      	mov	sl, r0
 80029ce:	460c      	mov	r4, r1
 80029d0:	4690      	mov	r8, r2
 80029d2:	d82c      	bhi.n	8002a2e <__ssputs_r+0x6e>
 80029d4:	898a      	ldrh	r2, [r1, #12]
 80029d6:	f412 6f90 	tst.w	r2, #1152	; 0x480
 80029da:	d026      	beq.n	8002a2a <__ssputs_r+0x6a>
 80029dc:	6965      	ldr	r5, [r4, #20]
 80029de:	6909      	ldr	r1, [r1, #16]
 80029e0:	eb05 0545 	add.w	r5, r5, r5, lsl #1
 80029e4:	eba3 0901 	sub.w	r9, r3, r1
 80029e8:	eb05 75d5 	add.w	r5, r5, r5, lsr #31
 80029ec:	1c7b      	adds	r3, r7, #1
 80029ee:	444b      	add	r3, r9
 80029f0:	106d      	asrs	r5, r5, #1
 80029f2:	429d      	cmp	r5, r3
 80029f4:	bf38      	it	cc
 80029f6:	461d      	movcc	r5, r3
 80029f8:	0553      	lsls	r3, r2, #21
 80029fa:	d527      	bpl.n	8002a4c <__ssputs_r+0x8c>
 80029fc:	4629      	mov	r1, r5
 80029fe:	f7ff ff53 	bl	80028a8 <_malloc_r>
 8002a02:	4606      	mov	r6, r0
 8002a04:	b360      	cbz	r0, 8002a60 <__ssputs_r+0xa0>
 8002a06:	6921      	ldr	r1, [r4, #16]
 8002a08:	464a      	mov	r2, r9
 8002a0a:	f000 faeb 	bl	8002fe4 <memcpy>
 8002a0e:	89a3      	ldrh	r3, [r4, #12]
 8002a10:	f423 6390 	bic.w	r3, r3, #1152	; 0x480
 8002a14:	f043 0380 	orr.w	r3, r3, #128	; 0x80
 8002a18:	81a3      	strh	r3, [r4, #12]
 8002a1a:	6126      	str	r6, [r4, #16]
 8002a1c:	6165      	str	r5, [r4, #20]
 8002a1e:	444e      	add	r6, r9
 8002a20:	eba5 0509 	sub.w	r5, r5, r9
 8002a24:	6026      	str	r6, [r4, #0]
 8002a26:	60a5      	str	r5, [r4, #8]
 8002a28:	463e      	mov	r6, r7
 8002a2a:	42be      	cmp	r6, r7
 8002a2c:	d900      	bls.n	8002a30 <__ssputs_r+0x70>
 8002a2e:	463e      	mov	r6, r7
 8002a30:	6820      	ldr	r0, [r4, #0]
 8002a32:	4632      	mov	r2, r6
 8002a34:	4641      	mov	r1, r8
 8002a36:	f000 faab 	bl	8002f90 <memmove>
 8002a3a:	68a3      	ldr	r3, [r4, #8]
 8002a3c:	1b9b      	subs	r3, r3, r6
 8002a3e:	60a3      	str	r3, [r4, #8]
 8002a40:	6823      	ldr	r3, [r4, #0]
 8002a42:	4433      	add	r3, r6
 8002a44:	6023      	str	r3, [r4, #0]
 8002a46:	2000      	movs	r0, #0
 8002a48:	e8bd 87f0 	ldmia.w	sp!, {r4, r5, r6, r7, r8, r9, sl, pc}
 8002a4c:	462a      	mov	r2, r5
 8002a4e:	f000 fad7 	bl	8003000 <_realloc_r>
 8002a52:	4606      	mov	r6, r0
 8002a54:	2800      	cmp	r0, #0
 8002a56:	d1e0      	bne.n	8002a1a <__ssputs_r+0x5a>
 8002a58:	6921      	ldr	r1, [r4, #16]
 8002a5a:	4650      	mov	r0, sl
 8002a5c:	f7ff feb8 	bl	80027d0 <_free_r>
 8002a60:	230c      	movs	r3, #12
 8002a62:	f8ca 3000 	str.w	r3, [sl]
 8002a66:	89a3      	ldrh	r3, [r4, #12]
 8002a68:	f043 0340 	orr.w	r3, r3, #64	; 0x40
 8002a6c:	81a3      	strh	r3, [r4, #12]
 8002a6e:	f04f 30ff 	mov.w	r0, #4294967295
 8002a72:	e7e9      	b.n	8002a48 <__ssputs_r+0x88>

08002a74 <_svfiprintf_r>:
 8002a74:	e92d 4ff0 	stmdb	sp!, {r4, r5, r6, r7, r8, r9, sl, fp, lr}
 8002a78:	4698      	mov	r8, r3
 8002a7a:	898b      	ldrh	r3, [r1, #12]
 8002a7c:	061b      	lsls	r3, r3, #24
 8002a7e:	b09d      	sub	sp, #116	; 0x74
 8002a80:	4607      	mov	r7, r0
 8002a82:	460d      	mov	r5, r1
 8002a84:	4614      	mov	r4, r2
 8002a86:	d50e      	bpl.n	8002aa6 <_svfiprintf_r+0x32>
 8002a88:	690b      	ldr	r3, [r1, #16]
 8002a8a:	b963      	cbnz	r3, 8002aa6 <_svfiprintf_r+0x32>
 8002a8c:	2140      	movs	r1, #64	; 0x40
 8002a8e:	f7ff ff0b 	bl	80028a8 <_malloc_r>
 8002a92:	6028      	str	r0, [r5, #0]
 8002a94:	6128      	str	r0, [r5, #16]
 8002a96:	b920      	cbnz	r0, 8002aa2 <_svfiprintf_r+0x2e>
 8002a98:	230c      	movs	r3, #12
 8002a9a:	603b      	str	r3, [r7, #0]
 8002a9c:	f04f 30ff 	mov.w	r0, #4294967295
 8002aa0:	e0d0      	b.n	8002c44 <_svfiprintf_r+0x1d0>
 8002aa2:	2340      	movs	r3, #64	; 0x40
 8002aa4:	616b      	str	r3, [r5, #20]
 8002aa6:	2300      	movs	r3, #0
 8002aa8:	9309      	str	r3, [sp, #36]	; 0x24
 8002aaa:	2320      	movs	r3, #32
 8002aac:	f88d 3029 	strb.w	r3, [sp, #41]	; 0x29
 8002ab0:	f8cd 800c 	str.w	r8, [sp, #12]
 8002ab4:	2330      	movs	r3, #48	; 0x30
 8002ab6:	f8df 81a4 	ldr.w	r8, [pc, #420]	; 8002c5c <_svfiprintf_r+0x1e8>
 8002aba:	f88d 302a 	strb.w	r3, [sp, #42]	; 0x2a
 8002abe:	f04f 0901 	mov.w	r9, #1
 8002ac2:	4623      	mov	r3, r4
 8002ac4:	469a      	mov	sl, r3
 8002ac6:	f813 2b01 	ldrb.w	r2, [r3], #1
 8002aca:	b10a      	cbz	r2, 8002ad0 <_svfiprintf_r+0x5c>
 8002acc:	2a25      	cmp	r2, #37	; 0x25
 8002ace:	d1f9      	bne.n	8002ac4 <_svfiprintf_r+0x50>
 8002ad0:	ebba 0b04 	subs.w	fp, sl, r4
 8002ad4:	d00b      	beq.n	8002aee <_svfiprintf_r+0x7a>
 8002ad6:	465b      	mov	r3, fp
 8002ad8:	4622      	mov	r2, r4
 8002ada:	4629      	mov	r1, r5
 8002adc:	4638      	mov	r0, r7
 8002ade:	f7ff ff6f 	bl	80029c0 <__ssputs_r>
 8002ae2:	3001      	adds	r0, #1
 8002ae4:	f000 80a9 	beq.w	8002c3a <_svfiprintf_r+0x1c6>
 8002ae8:	9a09      	ldr	r2, [sp, #36]	; 0x24
 8002aea:	445a      	add	r2, fp
 8002aec:	9209      	str	r2, [sp, #36]	; 0x24
 8002aee:	f89a 3000 	ldrb.w	r3, [sl]
 8002af2:	2b00      	cmp	r3, #0
 8002af4:	f000 80a1 	beq.w	8002c3a <_svfiprintf_r+0x1c6>
 8002af8:	2300      	movs	r3, #0
 8002afa:	f04f 32ff 	mov.w	r2, #4294967295
 8002afe:	e9cd 2305 	strd	r2, r3, [sp, #20]
 8002b02:	f10a 0a01 	add.w	sl, sl, #1
 8002b06:	9304      	str	r3, [sp, #16]
 8002b08:	9307      	str	r3, [sp, #28]
 8002b0a:	f88d 3053 	strb.w	r3, [sp, #83]	; 0x53
 8002b0e:	931a      	str	r3, [sp, #104]	; 0x68
 8002b10:	4654      	mov	r4, sl
 8002b12:	2205      	movs	r2, #5
 8002b14:	f814 1b01 	ldrb.w	r1, [r4], #1
 8002b18:	4850      	ldr	r0, [pc, #320]	; (8002c5c <_svfiprintf_r+0x1e8>)
 8002b1a:	f7fd fb69 	bl	80001f0 <memchr>
 8002b1e:	9a04      	ldr	r2, [sp, #16]
 8002b20:	b9d8      	cbnz	r0, 8002b5a <_svfiprintf_r+0xe6>
 8002b22:	06d0      	lsls	r0, r2, #27
 8002b24:	bf44      	itt	mi
 8002b26:	2320      	movmi	r3, #32
 8002b28:	f88d 3053 	strbmi.w	r3, [sp, #83]	; 0x53
 8002b2c:	0711      	lsls	r1, r2, #28
 8002b2e:	bf44      	itt	mi
 8002b30:	232b      	movmi	r3, #43	; 0x2b
 8002b32:	f88d 3053 	strbmi.w	r3, [sp, #83]	; 0x53
 8002b36:	f89a 3000 	ldrb.w	r3, [sl]
 8002b3a:	2b2a      	cmp	r3, #42	; 0x2a
 8002b3c:	d015      	beq.n	8002b6a <_svfiprintf_r+0xf6>
 8002b3e:	9a07      	ldr	r2, [sp, #28]
 8002b40:	4654      	mov	r4, sl
 8002b42:	2000      	movs	r0, #0
 8002b44:	f04f 0c0a 	mov.w	ip, #10
 8002b48:	4621      	mov	r1, r4
 8002b4a:	f811 3b01 	ldrb.w	r3, [r1], #1
 8002b4e:	3b30      	subs	r3, #48	; 0x30
 8002b50:	2b09      	cmp	r3, #9
 8002b52:	d94d      	bls.n	8002bf0 <_svfiprintf_r+0x17c>
 8002b54:	b1b0      	cbz	r0, 8002b84 <_svfiprintf_r+0x110>
 8002b56:	9207      	str	r2, [sp, #28]
 8002b58:	e014      	b.n	8002b84 <_svfiprintf_r+0x110>
 8002b5a:	eba0 0308 	sub.w	r3, r0, r8
 8002b5e:	fa09 f303 	lsl.w	r3, r9, r3
 8002b62:	4313      	orrs	r3, r2
 8002b64:	9304      	str	r3, [sp, #16]
 8002b66:	46a2      	mov	sl, r4
 8002b68:	e7d2      	b.n	8002b10 <_svfiprintf_r+0x9c>
 8002b6a:	9b03      	ldr	r3, [sp, #12]
 8002b6c:	1d19      	adds	r1, r3, #4
 8002b6e:	681b      	ldr	r3, [r3, #0]
 8002b70:	9103      	str	r1, [sp, #12]
 8002b72:	2b00      	cmp	r3, #0
 8002b74:	bfbb      	ittet	lt
 8002b76:	425b      	neglt	r3, r3
 8002b78:	f042 0202 	orrlt.w	r2, r2, #2
 8002b7c:	9307      	strge	r3, [sp, #28]
 8002b7e:	9307      	strlt	r3, [sp, #28]
 8002b80:	bfb8      	it	lt
 8002b82:	9204      	strlt	r2, [sp, #16]
 8002b84:	7823      	ldrb	r3, [r4, #0]
 8002b86:	2b2e      	cmp	r3, #46	; 0x2e
 8002b88:	d10c      	bne.n	8002ba4 <_svfiprintf_r+0x130>
 8002b8a:	7863      	ldrb	r3, [r4, #1]
 8002b8c:	2b2a      	cmp	r3, #42	; 0x2a
 8002b8e:	d134      	bne.n	8002bfa <_svfiprintf_r+0x186>
 8002b90:	9b03      	ldr	r3, [sp, #12]
 8002b92:	1d1a      	adds	r2, r3, #4
 8002b94:	681b      	ldr	r3, [r3, #0]
 8002b96:	9203      	str	r2, [sp, #12]
 8002b98:	2b00      	cmp	r3, #0
 8002b9a:	bfb8      	it	lt
 8002b9c:	f04f 33ff 	movlt.w	r3, #4294967295
 8002ba0:	3402      	adds	r4, #2
 8002ba2:	9305      	str	r3, [sp, #20]
 8002ba4:	f8df a0c4 	ldr.w	sl, [pc, #196]	; 8002c6c <_svfiprintf_r+0x1f8>
 8002ba8:	7821      	ldrb	r1, [r4, #0]
 8002baa:	2203      	movs	r2, #3
 8002bac:	4650      	mov	r0, sl
 8002bae:	f7fd fb1f 	bl	80001f0 <memchr>
 8002bb2:	b138      	cbz	r0, 8002bc4 <_svfiprintf_r+0x150>
 8002bb4:	9b04      	ldr	r3, [sp, #16]
 8002bb6:	eba0 000a 	sub.w	r0, r0, sl
 8002bba:	2240      	movs	r2, #64	; 0x40
 8002bbc:	4082      	lsls	r2, r0
 8002bbe:	4313      	orrs	r3, r2
 8002bc0:	3401      	adds	r4, #1
 8002bc2:	9304      	str	r3, [sp, #16]
 8002bc4:	f814 1b01 	ldrb.w	r1, [r4], #1
 8002bc8:	4825      	ldr	r0, [pc, #148]	; (8002c60 <_svfiprintf_r+0x1ec>)
 8002bca:	f88d 1028 	strb.w	r1, [sp, #40]	; 0x28
 8002bce:	2206      	movs	r2, #6
 8002bd0:	f7fd fb0e 	bl	80001f0 <memchr>
 8002bd4:	2800      	cmp	r0, #0
 8002bd6:	d038      	beq.n	8002c4a <_svfiprintf_r+0x1d6>
 8002bd8:	4b22      	ldr	r3, [pc, #136]	; (8002c64 <_svfiprintf_r+0x1f0>)
 8002bda:	bb1b      	cbnz	r3, 8002c24 <_svfiprintf_r+0x1b0>
 8002bdc:	9b03      	ldr	r3, [sp, #12]
 8002bde:	3307      	adds	r3, #7
 8002be0:	f023 0307 	bic.w	r3, r3, #7
 8002be4:	3308      	adds	r3, #8
 8002be6:	9303      	str	r3, [sp, #12]
 8002be8:	9b09      	ldr	r3, [sp, #36]	; 0x24
 8002bea:	4433      	add	r3, r6
 8002bec:	9309      	str	r3, [sp, #36]	; 0x24
 8002bee:	e768      	b.n	8002ac2 <_svfiprintf_r+0x4e>
 8002bf0:	fb0c 3202 	mla	r2, ip, r2, r3
 8002bf4:	460c      	mov	r4, r1
 8002bf6:	2001      	movs	r0, #1
 8002bf8:	e7a6      	b.n	8002b48 <_svfiprintf_r+0xd4>
 8002bfa:	2300      	movs	r3, #0
 8002bfc:	3401      	adds	r4, #1
 8002bfe:	9305      	str	r3, [sp, #20]
 8002c00:	4619      	mov	r1, r3
 8002c02:	f04f 0c0a 	mov.w	ip, #10
 8002c06:	4620      	mov	r0, r4
 8002c08:	f810 2b01 	ldrb.w	r2, [r0], #1
 8002c0c:	3a30      	subs	r2, #48	; 0x30
 8002c0e:	2a09      	cmp	r2, #9
 8002c10:	d903      	bls.n	8002c1a <_svfiprintf_r+0x1a6>
 8002c12:	2b00      	cmp	r3, #0
 8002c14:	d0c6      	beq.n	8002ba4 <_svfiprintf_r+0x130>
 8002c16:	9105      	str	r1, [sp, #20]
 8002c18:	e7c4      	b.n	8002ba4 <_svfiprintf_r+0x130>
 8002c1a:	fb0c 2101 	mla	r1, ip, r1, r2
 8002c1e:	4604      	mov	r4, r0
 8002c20:	2301      	movs	r3, #1
 8002c22:	e7f0      	b.n	8002c06 <_svfiprintf_r+0x192>
 8002c24:	ab03      	add	r3, sp, #12
 8002c26:	9300      	str	r3, [sp, #0]
 8002c28:	462a      	mov	r2, r5
 8002c2a:	4b0f      	ldr	r3, [pc, #60]	; (8002c68 <_svfiprintf_r+0x1f4>)
 8002c2c:	a904      	add	r1, sp, #16
 8002c2e:	4638      	mov	r0, r7
 8002c30:	f3af 8000 	nop.w
 8002c34:	1c42      	adds	r2, r0, #1
 8002c36:	4606      	mov	r6, r0
 8002c38:	d1d6      	bne.n	8002be8 <_svfiprintf_r+0x174>
 8002c3a:	89ab      	ldrh	r3, [r5, #12]
 8002c3c:	065b      	lsls	r3, r3, #25
 8002c3e:	f53f af2d 	bmi.w	8002a9c <_svfiprintf_r+0x28>
 8002c42:	9809      	ldr	r0, [sp, #36]	; 0x24
 8002c44:	b01d      	add	sp, #116	; 0x74
 8002c46:	e8bd 8ff0 	ldmia.w	sp!, {r4, r5, r6, r7, r8, r9, sl, fp, pc}
 8002c4a:	ab03      	add	r3, sp, #12
 8002c4c:	9300      	str	r3, [sp, #0]
 8002c4e:	462a      	mov	r2, r5
 8002c50:	4b05      	ldr	r3, [pc, #20]	; (8002c68 <_svfiprintf_r+0x1f4>)
 8002c52:	a904      	add	r1, sp, #16
 8002c54:	4638      	mov	r0, r7
 8002c56:	f000 f879 	bl	8002d4c <_printf_i>
 8002c5a:	e7eb      	b.n	8002c34 <_svfiprintf_r+0x1c0>
 8002c5c:	080030bf 	.word	0x080030bf
 8002c60:	080030c9 	.word	0x080030c9
 8002c64:	00000000 	.word	0x00000000
 8002c68:	080029c1 	.word	0x080029c1
 8002c6c:	080030c5 	.word	0x080030c5

08002c70 <_printf_common>:
 8002c70:	e92d 47f0 	stmdb	sp!, {r4, r5, r6, r7, r8, r9, sl, lr}
 8002c74:	4616      	mov	r6, r2
 8002c76:	4699      	mov	r9, r3
 8002c78:	688a      	ldr	r2, [r1, #8]
 8002c7a:	690b      	ldr	r3, [r1, #16]
 8002c7c:	f8dd 8020 	ldr.w	r8, [sp, #32]
 8002c80:	4293      	cmp	r3, r2
 8002c82:	bfb8      	it	lt
 8002c84:	4613      	movlt	r3, r2
 8002c86:	6033      	str	r3, [r6, #0]
 8002c88:	f891 2043 	ldrb.w	r2, [r1, #67]	; 0x43
 8002c8c:	4607      	mov	r7, r0
 8002c8e:	460c      	mov	r4, r1
 8002c90:	b10a      	cbz	r2, 8002c96 <_printf_common+0x26>
 8002c92:	3301      	adds	r3, #1
 8002c94:	6033      	str	r3, [r6, #0]
 8002c96:	6823      	ldr	r3, [r4, #0]
 8002c98:	0699      	lsls	r1, r3, #26
 8002c9a:	bf42      	ittt	mi
 8002c9c:	6833      	ldrmi	r3, [r6, #0]
 8002c9e:	3302      	addmi	r3, #2
 8002ca0:	6033      	strmi	r3, [r6, #0]
 8002ca2:	6825      	ldr	r5, [r4, #0]
 8002ca4:	f015 0506 	ands.w	r5, r5, #6
 8002ca8:	d106      	bne.n	8002cb8 <_printf_common+0x48>
 8002caa:	f104 0a19 	add.w	sl, r4, #25
 8002cae:	68e3      	ldr	r3, [r4, #12]
 8002cb0:	6832      	ldr	r2, [r6, #0]
 8002cb2:	1a9b      	subs	r3, r3, r2
 8002cb4:	42ab      	cmp	r3, r5
 8002cb6:	dc26      	bgt.n	8002d06 <_printf_common+0x96>
 8002cb8:	f894 2043 	ldrb.w	r2, [r4, #67]	; 0x43
 8002cbc:	1e13      	subs	r3, r2, #0
 8002cbe:	6822      	ldr	r2, [r4, #0]
 8002cc0:	bf18      	it	ne
 8002cc2:	2301      	movne	r3, #1
 8002cc4:	0692      	lsls	r2, r2, #26
 8002cc6:	d42b      	bmi.n	8002d20 <_printf_common+0xb0>
 8002cc8:	f104 0243 	add.w	r2, r4, #67	; 0x43
 8002ccc:	4649      	mov	r1, r9
 8002cce:	4638      	mov	r0, r7
 8002cd0:	47c0      	blx	r8
 8002cd2:	3001      	adds	r0, #1
 8002cd4:	d01e      	beq.n	8002d14 <_printf_common+0xa4>
 8002cd6:	6823      	ldr	r3, [r4, #0]
 8002cd8:	6922      	ldr	r2, [r4, #16]
 8002cda:	f003 0306 	and.w	r3, r3, #6
 8002cde:	2b04      	cmp	r3, #4
 8002ce0:	bf02      	ittt	eq
 8002ce2:	68e5      	ldreq	r5, [r4, #12]
 8002ce4:	6833      	ldreq	r3, [r6, #0]
 8002ce6:	1aed      	subeq	r5, r5, r3
 8002ce8:	68a3      	ldr	r3, [r4, #8]
 8002cea:	bf0c      	ite	eq
 8002cec:	ea25 75e5 	biceq.w	r5, r5, r5, asr #31
 8002cf0:	2500      	movne	r5, #0
 8002cf2:	4293      	cmp	r3, r2
 8002cf4:	bfc4      	itt	gt
 8002cf6:	1a9b      	subgt	r3, r3, r2
 8002cf8:	18ed      	addgt	r5, r5, r3
 8002cfa:	2600      	movs	r6, #0
 8002cfc:	341a      	adds	r4, #26
 8002cfe:	42b5      	cmp	r5, r6
 8002d00:	d11a      	bne.n	8002d38 <_printf_common+0xc8>
 8002d02:	2000      	movs	r0, #0
 8002d04:	e008      	b.n	8002d18 <_printf_common+0xa8>
 8002d06:	2301      	movs	r3, #1
 8002d08:	4652      	mov	r2, sl
 8002d0a:	4649      	mov	r1, r9
 8002d0c:	4638      	mov	r0, r7
 8002d0e:	47c0      	blx	r8
 8002d10:	3001      	adds	r0, #1
 8002d12:	d103      	bne.n	8002d1c <_printf_common+0xac>
 8002d14:	f04f 30ff 	mov.w	r0, #4294967295
 8002d18:	e8bd 87f0 	ldmia.w	sp!, {r4, r5, r6, r7, r8, r9, sl, pc}
 8002d1c:	3501      	adds	r5, #1
 8002d1e:	e7c6      	b.n	8002cae <_printf_common+0x3e>
 8002d20:	18e1      	adds	r1, r4, r3
 8002d22:	1c5a      	adds	r2, r3, #1
 8002d24:	2030      	movs	r0, #48	; 0x30
 8002d26:	f881 0043 	strb.w	r0, [r1, #67]	; 0x43
 8002d2a:	4422      	add	r2, r4
 8002d2c:	f894 1045 	ldrb.w	r1, [r4, #69]	; 0x45
 8002d30:	f882 1043 	strb.w	r1, [r2, #67]	; 0x43
 8002d34:	3302      	adds	r3, #2
 8002d36:	e7c7      	b.n	8002cc8 <_printf_common+0x58>
 8002d38:	2301      	movs	r3, #1
 8002d3a:	4622      	mov	r2, r4
 8002d3c:	4649      	mov	r1, r9
 8002d3e:	4638      	mov	r0, r7
 8002d40:	47c0      	blx	r8
 8002d42:	3001      	adds	r0, #1
 8002d44:	d0e6      	beq.n	8002d14 <_printf_common+0xa4>
 8002d46:	3601      	adds	r6, #1
 8002d48:	e7d9      	b.n	8002cfe <_printf_common+0x8e>
	...

08002d4c <_printf_i>:
 8002d4c:	e92d 47ff 	stmdb	sp!, {r0, r1, r2, r3, r4, r5, r6, r7, r8, r9, sl, lr}
 8002d50:	7e0f      	ldrb	r7, [r1, #24]
 8002d52:	9d0c      	ldr	r5, [sp, #48]	; 0x30
 8002d54:	2f78      	cmp	r7, #120	; 0x78
 8002d56:	4691      	mov	r9, r2
 8002d58:	4680      	mov	r8, r0
 8002d5a:	460c      	mov	r4, r1
 8002d5c:	469a      	mov	sl, r3
 8002d5e:	f101 0243 	add.w	r2, r1, #67	; 0x43
 8002d62:	d807      	bhi.n	8002d74 <_printf_i+0x28>
 8002d64:	2f62      	cmp	r7, #98	; 0x62
 8002d66:	d80a      	bhi.n	8002d7e <_printf_i+0x32>
 8002d68:	2f00      	cmp	r7, #0
 8002d6a:	f000 80d4 	beq.w	8002f16 <_printf_i+0x1ca>
 8002d6e:	2f58      	cmp	r7, #88	; 0x58
 8002d70:	f000 80c0 	beq.w	8002ef4 <_printf_i+0x1a8>
 8002d74:	f104 0542 	add.w	r5, r4, #66	; 0x42
 8002d78:	f884 7042 	strb.w	r7, [r4, #66]	; 0x42
 8002d7c:	e03a      	b.n	8002df4 <_printf_i+0xa8>
 8002d7e:	f1a7 0363 	sub.w	r3, r7, #99	; 0x63
 8002d82:	2b15      	cmp	r3, #21
 8002d84:	d8f6      	bhi.n	8002d74 <_printf_i+0x28>
 8002d86:	a101      	add	r1, pc, #4	; (adr r1, 8002d8c <_printf_i+0x40>)
 8002d88:	f851 f023 	ldr.w	pc, [r1, r3, lsl #2]
 8002d8c:	08002de5 	.word	0x08002de5
 8002d90:	08002df9 	.word	0x08002df9
 8002d94:	08002d75 	.word	0x08002d75
 8002d98:	08002d75 	.word	0x08002d75
 8002d9c:	08002d75 	.word	0x08002d75
 8002da0:	08002d75 	.word	0x08002d75
 8002da4:	08002df9 	.word	0x08002df9
 8002da8:	08002d75 	.word	0x08002d75
 8002dac:	08002d75 	.word	0x08002d75
 8002db0:	08002d75 	.word	0x08002d75
 8002db4:	08002d75 	.word	0x08002d75
 8002db8:	08002efd 	.word	0x08002efd
 8002dbc:	08002e25 	.word	0x08002e25
 8002dc0:	08002eb7 	.word	0x08002eb7
 8002dc4:	08002d75 	.word	0x08002d75
 8002dc8:	08002d75 	.word	0x08002d75
 8002dcc:	08002f1f 	.word	0x08002f1f
 8002dd0:	08002d75 	.word	0x08002d75
 8002dd4:	08002e25 	.word	0x08002e25
 8002dd8:	08002d75 	.word	0x08002d75
 8002ddc:	08002d75 	.word	0x08002d75
 8002de0:	08002ebf 	.word	0x08002ebf
 8002de4:	682b      	ldr	r3, [r5, #0]
 8002de6:	1d1a      	adds	r2, r3, #4
 8002de8:	681b      	ldr	r3, [r3, #0]
 8002dea:	602a      	str	r2, [r5, #0]
 8002dec:	f104 0542 	add.w	r5, r4, #66	; 0x42
 8002df0:	f884 3042 	strb.w	r3, [r4, #66]	; 0x42
 8002df4:	2301      	movs	r3, #1
 8002df6:	e09f      	b.n	8002f38 <_printf_i+0x1ec>
 8002df8:	6820      	ldr	r0, [r4, #0]
 8002dfa:	682b      	ldr	r3, [r5, #0]
 8002dfc:	0607      	lsls	r7, r0, #24
 8002dfe:	f103 0104 	add.w	r1, r3, #4
 8002e02:	6029      	str	r1, [r5, #0]
 8002e04:	d501      	bpl.n	8002e0a <_printf_i+0xbe>
 8002e06:	681e      	ldr	r6, [r3, #0]
 8002e08:	e003      	b.n	8002e12 <_printf_i+0xc6>
 8002e0a:	0646      	lsls	r6, r0, #25
 8002e0c:	d5fb      	bpl.n	8002e06 <_printf_i+0xba>
 8002e0e:	f9b3 6000 	ldrsh.w	r6, [r3]
 8002e12:	2e00      	cmp	r6, #0
 8002e14:	da03      	bge.n	8002e1e <_printf_i+0xd2>
 8002e16:	232d      	movs	r3, #45	; 0x2d
 8002e18:	4276      	negs	r6, r6
 8002e1a:	f884 3043 	strb.w	r3, [r4, #67]	; 0x43
 8002e1e:	485a      	ldr	r0, [pc, #360]	; (8002f88 <_printf_i+0x23c>)
 8002e20:	230a      	movs	r3, #10
 8002e22:	e012      	b.n	8002e4a <_printf_i+0xfe>
 8002e24:	682b      	ldr	r3, [r5, #0]
 8002e26:	6820      	ldr	r0, [r4, #0]
 8002e28:	1d19      	adds	r1, r3, #4
 8002e2a:	6029      	str	r1, [r5, #0]
 8002e2c:	0605      	lsls	r5, r0, #24
 8002e2e:	d501      	bpl.n	8002e34 <_printf_i+0xe8>
 8002e30:	681e      	ldr	r6, [r3, #0]
 8002e32:	e002      	b.n	8002e3a <_printf_i+0xee>
 8002e34:	0641      	lsls	r1, r0, #25
 8002e36:	d5fb      	bpl.n	8002e30 <_printf_i+0xe4>
 8002e38:	881e      	ldrh	r6, [r3, #0]
 8002e3a:	4853      	ldr	r0, [pc, #332]	; (8002f88 <_printf_i+0x23c>)
 8002e3c:	2f6f      	cmp	r7, #111	; 0x6f
 8002e3e:	bf0c      	ite	eq
 8002e40:	2308      	moveq	r3, #8
 8002e42:	230a      	movne	r3, #10
 8002e44:	2100      	movs	r1, #0
 8002e46:	f884 1043 	strb.w	r1, [r4, #67]	; 0x43
 8002e4a:	6865      	ldr	r5, [r4, #4]
 8002e4c:	60a5      	str	r5, [r4, #8]
 8002e4e:	2d00      	cmp	r5, #0
 8002e50:	bfa2      	ittt	ge
 8002e52:	6821      	ldrge	r1, [r4, #0]
 8002e54:	f021 0104 	bicge.w	r1, r1, #4
 8002e58:	6021      	strge	r1, [r4, #0]
 8002e5a:	b90e      	cbnz	r6, 8002e60 <_printf_i+0x114>
 8002e5c:	2d00      	cmp	r5, #0
 8002e5e:	d04b      	beq.n	8002ef8 <_printf_i+0x1ac>
 8002e60:	4615      	mov	r5, r2
 8002e62:	fbb6 f1f3 	udiv	r1, r6, r3
 8002e66:	fb03 6711 	mls	r7, r3, r1, r6
 8002e6a:	5dc7      	ldrb	r7, [r0, r7]
 8002e6c:	f805 7d01 	strb.w	r7, [r5, #-1]!
 8002e70:	4637      	mov	r7, r6
 8002e72:	42bb      	cmp	r3, r7
 8002e74:	460e      	mov	r6, r1
 8002e76:	d9f4      	bls.n	8002e62 <_printf_i+0x116>
 8002e78:	2b08      	cmp	r3, #8
 8002e7a:	d10b      	bne.n	8002e94 <_printf_i+0x148>
 8002e7c:	6823      	ldr	r3, [r4, #0]
 8002e7e:	07de      	lsls	r6, r3, #31
 8002e80:	d508      	bpl.n	8002e94 <_printf_i+0x148>
 8002e82:	6923      	ldr	r3, [r4, #16]
 8002e84:	6861      	ldr	r1, [r4, #4]
 8002e86:	4299      	cmp	r1, r3
 8002e88:	bfde      	ittt	le
 8002e8a:	2330      	movle	r3, #48	; 0x30
 8002e8c:	f805 3c01 	strble.w	r3, [r5, #-1]
 8002e90:	f105 35ff 	addle.w	r5, r5, #4294967295
 8002e94:	1b52      	subs	r2, r2, r5
 8002e96:	6122      	str	r2, [r4, #16]
 8002e98:	f8cd a000 	str.w	sl, [sp]
 8002e9c:	464b      	mov	r3, r9
 8002e9e:	aa03      	add	r2, sp, #12
 8002ea0:	4621      	mov	r1, r4
 8002ea2:	4640      	mov	r0, r8
 8002ea4:	f7ff fee4 	bl	8002c70 <_printf_common>
 8002ea8:	3001      	adds	r0, #1
 8002eaa:	d14a      	bne.n	8002f42 <_printf_i+0x1f6>
 8002eac:	f04f 30ff 	mov.w	r0, #4294967295
 8002eb0:	b004      	add	sp, #16
 8002eb2:	e8bd 87f0 	ldmia.w	sp!, {r4, r5, r6, r7, r8, r9, sl, pc}
 8002eb6:	6823      	ldr	r3, [r4, #0]
 8002eb8:	f043 0320 	orr.w	r3, r3, #32
 8002ebc:	6023      	str	r3, [r4, #0]
 8002ebe:	4833      	ldr	r0, [pc, #204]	; (8002f8c <_printf_i+0x240>)
 8002ec0:	2778      	movs	r7, #120	; 0x78
 8002ec2:	f884 7045 	strb.w	r7, [r4, #69]	; 0x45
 8002ec6:	6823      	ldr	r3, [r4, #0]
 8002ec8:	6829      	ldr	r1, [r5, #0]
 8002eca:	061f      	lsls	r7, r3, #24
 8002ecc:	f851 6b04 	ldr.w	r6, [r1], #4
 8002ed0:	d402      	bmi.n	8002ed8 <_printf_i+0x18c>
 8002ed2:	065f      	lsls	r7, r3, #25
 8002ed4:	bf48      	it	mi
 8002ed6:	b2b6      	uxthmi	r6, r6
 8002ed8:	07df      	lsls	r7, r3, #31
 8002eda:	bf48      	it	mi
 8002edc:	f043 0320 	orrmi.w	r3, r3, #32
 8002ee0:	6029      	str	r1, [r5, #0]
 8002ee2:	bf48      	it	mi
 8002ee4:	6023      	strmi	r3, [r4, #0]
 8002ee6:	b91e      	cbnz	r6, 8002ef0 <_printf_i+0x1a4>
 8002ee8:	6823      	ldr	r3, [r4, #0]
 8002eea:	f023 0320 	bic.w	r3, r3, #32
 8002eee:	6023      	str	r3, [r4, #0]
 8002ef0:	2310      	movs	r3, #16
 8002ef2:	e7a7      	b.n	8002e44 <_printf_i+0xf8>
 8002ef4:	4824      	ldr	r0, [pc, #144]	; (8002f88 <_printf_i+0x23c>)
 8002ef6:	e7e4      	b.n	8002ec2 <_printf_i+0x176>
 8002ef8:	4615      	mov	r5, r2
 8002efa:	e7bd      	b.n	8002e78 <_printf_i+0x12c>
 8002efc:	682b      	ldr	r3, [r5, #0]
 8002efe:	6826      	ldr	r6, [r4, #0]
 8002f00:	6961      	ldr	r1, [r4, #20]
 8002f02:	1d18      	adds	r0, r3, #4
 8002f04:	6028      	str	r0, [r5, #0]
 8002f06:	0635      	lsls	r5, r6, #24
 8002f08:	681b      	ldr	r3, [r3, #0]
 8002f0a:	d501      	bpl.n	8002f10 <_printf_i+0x1c4>
 8002f0c:	6019      	str	r1, [r3, #0]
 8002f0e:	e002      	b.n	8002f16 <_printf_i+0x1ca>
 8002f10:	0670      	lsls	r0, r6, #25
 8002f12:	d5fb      	bpl.n	8002f0c <_printf_i+0x1c0>
 8002f14:	8019      	strh	r1, [r3, #0]
 8002f16:	2300      	movs	r3, #0
 8002f18:	6123      	str	r3, [r4, #16]
 8002f1a:	4615      	mov	r5, r2
 8002f1c:	e7bc      	b.n	8002e98 <_printf_i+0x14c>
 8002f1e:	682b      	ldr	r3, [r5, #0]
 8002f20:	1d1a      	adds	r2, r3, #4
 8002f22:	602a      	str	r2, [r5, #0]
 8002f24:	681d      	ldr	r5, [r3, #0]
 8002f26:	6862      	ldr	r2, [r4, #4]
 8002f28:	2100      	movs	r1, #0
 8002f2a:	4628      	mov	r0, r5
 8002f2c:	f7fd f960 	bl	80001f0 <memchr>
 8002f30:	b108      	cbz	r0, 8002f36 <_printf_i+0x1ea>
 8002f32:	1b40      	subs	r0, r0, r5
 8002f34:	6060      	str	r0, [r4, #4]
 8002f36:	6863      	ldr	r3, [r4, #4]
 8002f38:	6123      	str	r3, [r4, #16]
 8002f3a:	2300      	movs	r3, #0
 8002f3c:	f884 3043 	strb.w	r3, [r4, #67]	; 0x43
 8002f40:	e7aa      	b.n	8002e98 <_printf_i+0x14c>
 8002f42:	6923      	ldr	r3, [r4, #16]
 8002f44:	462a      	mov	r2, r5
 8002f46:	4649      	mov	r1, r9
 8002f48:	4640      	mov	r0, r8
 8002f4a:	47d0      	blx	sl
 8002f4c:	3001      	adds	r0, #1
 8002f4e:	d0ad      	beq.n	8002eac <_printf_i+0x160>
 8002f50:	6823      	ldr	r3, [r4, #0]
 8002f52:	079b      	lsls	r3, r3, #30
 8002f54:	d413      	bmi.n	8002f7e <_printf_i+0x232>
 8002f56:	68e0      	ldr	r0, [r4, #12]
 8002f58:	9b03      	ldr	r3, [sp, #12]
 8002f5a:	4298      	cmp	r0, r3
 8002f5c:	bfb8      	it	lt
 8002f5e:	4618      	movlt	r0, r3
 8002f60:	e7a6      	b.n	8002eb0 <_printf_i+0x164>
 8002f62:	2301      	movs	r3, #1
 8002f64:	4632      	mov	r2, r6
 8002f66:	4649      	mov	r1, r9
 8002f68:	4640      	mov	r0, r8
 8002f6a:	47d0      	blx	sl
 8002f6c:	3001      	adds	r0, #1
 8002f6e:	d09d      	beq.n	8002eac <_printf_i+0x160>
 8002f70:	3501      	adds	r5, #1
 8002f72:	68e3      	ldr	r3, [r4, #12]
 8002f74:	9903      	ldr	r1, [sp, #12]
 8002f76:	1a5b      	subs	r3, r3, r1
 8002f78:	42ab      	cmp	r3, r5
 8002f7a:	dcf2      	bgt.n	8002f62 <_printf_i+0x216>
 8002f7c:	e7eb      	b.n	8002f56 <_printf_i+0x20a>
 8002f7e:	2500      	movs	r5, #0
 8002f80:	f104 0619 	add.w	r6, r4, #25
 8002f84:	e7f5      	b.n	8002f72 <_printf_i+0x226>
 8002f86:	bf00      	nop
 8002f88:	080030d0 	.word	0x080030d0
 8002f8c:	080030e1 	.word	0x080030e1

08002f90 <memmove>:
 8002f90:	4288      	cmp	r0, r1
 8002f92:	b510      	push	{r4, lr}
 8002f94:	eb01 0402 	add.w	r4, r1, r2
 8002f98:	d902      	bls.n	8002fa0 <memmove+0x10>
 8002f9a:	4284      	cmp	r4, r0
 8002f9c:	4623      	mov	r3, r4
 8002f9e:	d807      	bhi.n	8002fb0 <memmove+0x20>
 8002fa0:	1e43      	subs	r3, r0, #1
 8002fa2:	42a1      	cmp	r1, r4
 8002fa4:	d008      	beq.n	8002fb8 <memmove+0x28>
 8002fa6:	f811 2b01 	ldrb.w	r2, [r1], #1
 8002faa:	f803 2f01 	strb.w	r2, [r3, #1]!
 8002fae:	e7f8      	b.n	8002fa2 <memmove+0x12>
 8002fb0:	4402      	add	r2, r0
 8002fb2:	4601      	mov	r1, r0
 8002fb4:	428a      	cmp	r2, r1
 8002fb6:	d100      	bne.n	8002fba <memmove+0x2a>
 8002fb8:	bd10      	pop	{r4, pc}
 8002fba:	f813 4d01 	ldrb.w	r4, [r3, #-1]!
 8002fbe:	f802 4d01 	strb.w	r4, [r2, #-1]!
 8002fc2:	e7f7      	b.n	8002fb4 <memmove+0x24>

08002fc4 <_sbrk_r>:
 8002fc4:	b538      	push	{r3, r4, r5, lr}
 8002fc6:	4d06      	ldr	r5, [pc, #24]	; (8002fe0 <_sbrk_r+0x1c>)
 8002fc8:	2300      	movs	r3, #0
 8002fca:	4604      	mov	r4, r0
 8002fcc:	4608      	mov	r0, r1
 8002fce:	602b      	str	r3, [r5, #0]
 8002fd0:	f7fe f902 	bl	80011d8 <_sbrk>
 8002fd4:	1c43      	adds	r3, r0, #1
 8002fd6:	d102      	bne.n	8002fde <_sbrk_r+0x1a>
 8002fd8:	682b      	ldr	r3, [r5, #0]
 8002fda:	b103      	cbz	r3, 8002fde <_sbrk_r+0x1a>
 8002fdc:	6023      	str	r3, [r4, #0]
 8002fde:	bd38      	pop	{r3, r4, r5, pc}
 8002fe0:	200004b8 	.word	0x200004b8

08002fe4 <memcpy>:
 8002fe4:	440a      	add	r2, r1
 8002fe6:	4291      	cmp	r1, r2
 8002fe8:	f100 33ff 	add.w	r3, r0, #4294967295
 8002fec:	d100      	bne.n	8002ff0 <memcpy+0xc>
 8002fee:	4770      	bx	lr
 8002ff0:	b510      	push	{r4, lr}
 8002ff2:	f811 4b01 	ldrb.w	r4, [r1], #1
 8002ff6:	f803 4f01 	strb.w	r4, [r3, #1]!
 8002ffa:	4291      	cmp	r1, r2
 8002ffc:	d1f9      	bne.n	8002ff2 <memcpy+0xe>
 8002ffe:	bd10      	pop	{r4, pc}

08003000 <_realloc_r>:
 8003000:	e92d 41f0 	stmdb	sp!, {r4, r5, r6, r7, r8, lr}
 8003004:	4680      	mov	r8, r0
 8003006:	4614      	mov	r4, r2
 8003008:	460e      	mov	r6, r1
 800300a:	b921      	cbnz	r1, 8003016 <_realloc_r+0x16>
 800300c:	e8bd 41f0 	ldmia.w	sp!, {r4, r5, r6, r7, r8, lr}
 8003010:	4611      	mov	r1, r2
 8003012:	f7ff bc49 	b.w	80028a8 <_malloc_r>
 8003016:	b92a      	cbnz	r2, 8003024 <_realloc_r+0x24>
 8003018:	f7ff fbda 	bl	80027d0 <_free_r>
 800301c:	4625      	mov	r5, r4
 800301e:	4628      	mov	r0, r5
 8003020:	e8bd 81f0 	ldmia.w	sp!, {r4, r5, r6, r7, r8, pc}
 8003024:	f000 f81b 	bl	800305e <_malloc_usable_size_r>
 8003028:	4284      	cmp	r4, r0
 800302a:	4607      	mov	r7, r0
 800302c:	d802      	bhi.n	8003034 <_realloc_r+0x34>
 800302e:	ebb4 0f50 	cmp.w	r4, r0, lsr #1
 8003032:	d812      	bhi.n	800305a <_realloc_r+0x5a>
 8003034:	4621      	mov	r1, r4
 8003036:	4640      	mov	r0, r8
 8003038:	f7ff fc36 	bl	80028a8 <_malloc_r>
 800303c:	4605      	mov	r5, r0
 800303e:	2800      	cmp	r0, #0
 8003040:	d0ed      	beq.n	800301e <_realloc_r+0x1e>
 8003042:	42bc      	cmp	r4, r7
 8003044:	4622      	mov	r2, r4
 8003046:	4631      	mov	r1, r6
 8003048:	bf28      	it	cs
 800304a:	463a      	movcs	r2, r7
 800304c:	f7ff ffca 	bl	8002fe4 <memcpy>
 8003050:	4631      	mov	r1, r6
 8003052:	4640      	mov	r0, r8
 8003054:	f7ff fbbc 	bl	80027d0 <_free_r>
 8003058:	e7e1      	b.n	800301e <_realloc_r+0x1e>
 800305a:	4635      	mov	r5, r6
 800305c:	e7df      	b.n	800301e <_realloc_r+0x1e>

0800305e <_malloc_usable_size_r>:
 800305e:	f851 3c04 	ldr.w	r3, [r1, #-4]
 8003062:	1f18      	subs	r0, r3, #4
 8003064:	2b00      	cmp	r3, #0
 8003066:	bfbc      	itt	lt
 8003068:	580b      	ldrlt	r3, [r1, r0]
 800306a:	18c0      	addlt	r0, r0, r3
 800306c:	4770      	bx	lr
	...

08003070 <_init>:
 8003070:	b5f8      	push	{r3, r4, r5, r6, r7, lr}
 8003072:	bf00      	nop
 8003074:	bcf8      	pop	{r3, r4, r5, r6, r7}
 8003076:	bc08      	pop	{r3}
 8003078:	469e      	mov	lr, r3
 800307a:	4770      	bx	lr

0800307c <_fini>:
 800307c:	b5f8      	push	{r3, r4, r5, r6, r7, lr}
 800307e:	bf00      	nop
 8003080:	bcf8      	pop	{r3, r4, r5, r6, r7}
 8003082:	bc08      	pop	{r3}
 8003084:	469e      	mov	lr, r3
 8003086:	4770      	bx	lr
